TN:
SF:/usr/include/c++/9/bits/unordered_map.h
FN:141,_ZNSt13unordered_mapIcP8TrieNodeSt4hashIcESt8equal_toIcESaISt4pairIKcS1_EEEC2Ev
FNDA:13767,_ZNSt13unordered_mapIcP8TrieNodeSt4hashIcESt8equal_toIcESaISt4pairIKcS1_EEEC2Ev
FN:181,_ZNSt13unordered_mapIcP8TrieNodeSt4hashIcESt8equal_toIcESaISt4pairIKcS1_EEEC2ERKSA_
FNDA:5,_ZNSt13unordered_mapIcP8TrieNodeSt4hashIcESt8equal_toIcESaISt4pairIKcS1_EEEC2ERKSA_
FN:347,_ZNSt13unordered_mapIcP8TrieNodeSt4hashIcESt8equal_toIcESaISt4pairIKcS1_EEE3endEv
FNDA:14061,_ZNSt13unordered_mapIcP8TrieNodeSt4hashIcESt8equal_toIcESaISt4pairIKcS1_EEE3endEv
FN:921,_ZNSt13unordered_mapIcP8TrieNodeSt4hashIcESt8equal_toIcESaISt4pairIKcS1_EEE4findERS7_
FNDA:14061,_ZNSt13unordered_mapIcP8TrieNodeSt4hashIcESt8equal_toIcESaISt4pairIKcS1_EEE4findERS7_
FN:985,_ZNSt13unordered_mapIcP8TrieNodeSt4hashIcESt8equal_toIcESaISt4pairIKcS1_EEEixERS7_
FNDA:27821,_ZNSt13unordered_mapIcP8TrieNodeSt4hashIcESt8equal_toIcESaISt4pairIKcS1_EEEixERS7_
DA:141,13767
DA:181,5
DA:347,14061
DA:348,14061
DA:921,14061
DA:922,14061
DA:985,27821
DA:986,27821
end_of_record
SF:/usr/include/gtest/gtest-printers.h
FN:260,_ZN16testing_internal26DefaultPrintNonContainerToIiEEvRKT_PSo
FNDA:0,_ZN16testing_internal26DefaultPrintNonContainerToIiEEvRKT_PSo
FN:313,_ZN7testing8internal19FormatForComparisonIbiE6FormatB5cxx11ERKb
FNDA:0,_ZN7testing8internal19FormatForComparisonIbiE6FormatB5cxx11ERKb
FN:313,_ZN7testing8internal19FormatForComparisonIibE6FormatB5cxx11ERKi
FNDA:0,_ZN7testing8internal19FormatForComparisonIibE6FormatB5cxx11ERKi
FN:377,_ZN7testing8internal33FormatForComparisonFailureMessageIbiEENSt7__cxx1112basic_stringIcSt11char_traitsIcESaIcEEERKT_RKT0_
FNDA:0,_ZN7testing8internal33FormatForComparisonFailureMessageIbiEENSt7__cxx1112basic_stringIcSt11char_traitsIcESaIcEEERKT_RKT0_
FN:377,_ZN7testing8internal33FormatForComparisonFailureMessageIibEENSt7__cxx1112basic_stringIcSt11char_traitsIcESaIcEEERKT_RKT0_
FNDA:0,_ZN7testing8internal33FormatForComparisonFailureMessageIibEENSt7__cxx1112basic_stringIcSt11char_traitsIcESaIcEEERKT_RKT0_
FN:466,_ZN7testing8internal14DefaultPrintToIiEEvNS0_15WrapPrinterTypeILNS0_18DefaultPrinterTypeE3EEERKT_PSo
FNDA:0,_ZN7testing8internal14DefaultPrintToIiEEvNS0_15WrapPrinterTypeILNS0_18DefaultPrinterTypeE3EEERKT_PSo
FN:483,_ZN7testing8internal7PrintToIiEEvRKT_PSo
FNDA:0,_ZN7testing8internal7PrintToIiEEvRKT_PSo
FN:531,_ZN7testing8internal7PrintToEbPSo
FNDA:0,_ZN7testing8internal7PrintToEbPSo
FN:670,_ZN7testing8internal16UniversalPrinterIbE5PrintERKbPSo
FNDA:0,_ZN7testing8internal16UniversalPrinterIbE5PrintERKbPSo
FN:670,_ZN7testing8internal16UniversalPrinterIiE5PrintERKiPSo
FNDA:0,_ZN7testing8internal16UniversalPrinterIiE5PrintERKiPSo
FN:796,_ZN7testing8internal21UniversalTersePrinterIbE5PrintERKbPSo
FNDA:0,_ZN7testing8internal21UniversalTersePrinterIbE5PrintERKbPSo
FN:796,_ZN7testing8internal21UniversalTersePrinterIiE5PrintERKiPSo
FNDA:0,_ZN7testing8internal21UniversalTersePrinterIiE5PrintERKiPSo
FN:865,_ZN7testing8internal14UniversalPrintIbEEvRKT_PSo
FNDA:0,_ZN7testing8internal14UniversalPrintIbEEvRKT_PSo
FN:865,_ZN7testing8internal14UniversalPrintIiEEvRKT_PSo
FNDA:0,_ZN7testing8internal14UniversalPrintIiEEvRKT_PSo
FN:915,_ZN7testing13PrintToStringIbEENSt7__cxx1112basic_stringIcSt11char_traitsIcESaIcEEERKT_
FNDA:0,_ZN7testing13PrintToStringIbEENSt7__cxx1112basic_stringIcSt11char_traitsIcESaIcEEERKT_
FN:915,_ZN7testing13PrintToStringIiEENSt7__cxx1112basic_stringIcSt11char_traitsIcESaIcEEERKT_
FNDA:0,_ZN7testing13PrintToStringIiEENSt7__cxx1112basic_stringIcSt11char_traitsIcESaIcEEERKT_
DA:260,0
DA:287,0
DA:288,0
DA:313,0
DA:314,0
DA:313,0
DA:314,0
DA:377,0
DA:379,0
DA:377,0
DA:379,0
DA:466,0
DA:468,0
DA:469,0
DA:483,0
DA:503,0
DA:514,0
DA:531,0
DA:532,0
DA:533,0
DA:670,0
DA:679,0
DA:680,0
DA:670,0
DA:679,0
DA:680,0
DA:796,0
DA:797,0
DA:798,0
DA:796,0
DA:797,0
DA:798,0
DA:865,0
DA:869,0
DA:870,0
DA:865,0
DA:869,0
DA:870,0
DA:915,0
DA:916,0
DA:917,0
DA:918,0
DA:915,0
DA:916,0
DA:917,0
DA:918,0
end_of_record
SF:/usr/include/c++/9/new
FN:173,_ZnwmPv
FNDA:27522,_ZnwmPv
FN:179,_ZdlPvS_
FNDA:0,_ZdlPvS_
DA:173,27522
DA:174,27522
DA:179,0
end_of_record
SF:/usr/include/c++/9/bits/ptr_traits.h
FN:146,_ZNSt14pointer_traitsIPNSt8__detail10_Hash_nodeISt4pairIKcP8TrieNodeELb0EEEE10pointer_toERS7_
FNDA:0,_ZNSt14pointer_traitsIPNSt8__detail10_Hash_nodeISt4pairIKcP8TrieNodeELb0EEEE10pointer_toERS7_
FN:146,_ZNSt14pointer_traitsIPPNSt8__detail15_Hash_node_baseEE10pointer_toERS2_
FNDA:3,_ZNSt14pointer_traitsIPPNSt8__detail15_Hash_node_baseEE10pointer_toERS2_
FN:156,_ZSt12__to_addressIPNSt8__detail15_Hash_node_baseEEPT_S4_
FNDA:13514,_ZSt12__to_addressIPNSt8__detail15_Hash_node_baseEEPT_S4_
FN:156,_ZSt12__to_addressINSt8__detail10_Hash_nodeISt4pairIKcP8TrieNodeELb0EEEEPT_S9_
FNDA:13761,_ZSt12__to_addressINSt8__detail10_Hash_nodeISt4pairIKcP8TrieNodeELb0EEEEPT_S9_
DA:146,0
DA:147,0
DA:146,3
DA:147,3
DA:156,13514
DA:159,13514
DA:156,13761
DA:159,13761
end_of_record
SF:/usr/include/c++/9/bits/stl_iterator.h
FN:803,_ZN9__gnu_cxx17__normal_iteratorIPNSt7__cxx1112basic_stringIcSt11char_traitsIcESaIcEEESt6vectorIS6_SaIS6_EEEC2ERKS7_
FNDA:0,_ZN9__gnu_cxx17__normal_iteratorIPNSt7__cxx1112basic_stringIcSt11char_traitsIcESaIcEEESt6vectorIS6_SaIS6_EEEC2ERKS7_
FN:803,_ZN9__gnu_cxx17__normal_iteratorIPKNSt7__cxx1112basic_stringIcSt11char_traitsIcESaIcEEESt6vectorIS6_SaIS6_EEEC2ERKS8_
FNDA:10,_ZN9__gnu_cxx17__normal_iteratorIPKNSt7__cxx1112basic_stringIcSt11char_traitsIcESaIcEEESt6vectorIS6_SaIS6_EEEC2ERKS8_
FN:816,_ZNK9__gnu_cxx17__normal_iteratorIPcNSt7__cxx1112basic_stringIcSt11char_traitsIcESaIcEEEEdeEv
FNDA:58,_ZNK9__gnu_cxx17__normal_iteratorIPcNSt7__cxx1112basic_stringIcSt11char_traitsIcESaIcEEEEdeEv
FN:816,_ZNK9__gnu_cxx17__normal_iteratorIPKNSt7__cxx1112basic_stringIcSt11char_traitsIcESaIcEEESt6vectorIS6_SaIS6_EEEdeEv
FNDA:0,_ZNK9__gnu_cxx17__normal_iteratorIPKNSt7__cxx1112basic_stringIcSt11char_traitsIcESaIcEEESt6vectorIS6_SaIS6_EEEdeEv
FN:824,_ZN9__gnu_cxx17__normal_iteratorIPcNSt7__cxx1112basic_stringIcSt11char_traitsIcESaIcEEEEppEv
FNDA:58,_ZN9__gnu_cxx17__normal_iteratorIPcNSt7__cxx1112basic_stringIcSt11char_traitsIcESaIcEEEEppEv
FN:824,_ZN9__gnu_cxx17__normal_iteratorIPKNSt7__cxx1112basic_stringIcSt11char_traitsIcESaIcEEESt6vectorIS6_SaIS6_EEEppEv
FNDA:0,_ZN9__gnu_cxx17__normal_iteratorIPKNSt7__cxx1112basic_stringIcSt11char_traitsIcESaIcEEESt6vectorIS6_SaIS6_EEEppEv
FN:868,_ZNK9__gnu_cxx17__normal_iteratorIPcNSt7__cxx1112basic_stringIcSt11char_traitsIcESaIcEEEE4baseEv
FNDA:62,_ZNK9__gnu_cxx17__normal_iteratorIPcNSt7__cxx1112basic_stringIcSt11char_traitsIcESaIcEEEE4baseEv
FN:868,_ZNK9__gnu_cxx17__normal_iteratorIPKNSt7__cxx1112basic_stringIcSt11char_traitsIcESaIcEEESt6vectorIS6_SaIS6_EEE4baseEv
FNDA:10,_ZNK9__gnu_cxx17__normal_iteratorIPKNSt7__cxx1112basic_stringIcSt11char_traitsIcESaIcEEESt6vectorIS6_SaIS6_EEE4baseEv
FN:868,_ZNK9__gnu_cxx17__normal_iteratorIPNSt7__cxx1112basic_stringIcSt11char_traitsIcESaIcEEESt6vectorIS6_SaIS6_EEE4baseEv
FNDA:0,_ZNK9__gnu_cxx17__normal_iteratorIPNSt7__cxx1112basic_stringIcSt11char_traitsIcESaIcEEESt6vectorIS6_SaIS6_EEE4baseEv
FN:904,_ZN9__gnu_cxxneIPcNSt7__cxx1112basic_stringIcSt11char_traitsIcESaIcEEEEEbRKNS_17__normal_iteratorIT_T0_EESD_
FNDA:31,_ZN9__gnu_cxxneIPcNSt7__cxx1112basic_stringIcSt11char_traitsIcESaIcEEEEEbRKNS_17__normal_iteratorIT_T0_EESD_
FN:904,_ZN9__gnu_cxxneIPKNSt7__cxx1112basic_stringIcSt11char_traitsIcESaIcEEESt6vectorIS6_SaIS6_EEEEbRKNS_17__normal_iteratorIT_T0_EESH_
FNDA:5,_ZN9__gnu_cxxneIPKNSt7__cxx1112basic_stringIcSt11char_traitsIcESaIcEEESt6vectorIS6_SaIS6_EEEEbRKNS_17__normal_iteratorIT_T0_EESH_
FN:986,_ZN9__gnu_cxxmiIPNSt7__cxx1112basic_stringIcSt11char_traitsIcESaIcEEESt6vectorIS6_SaIS6_EEEENS_17__normal_iteratorIT_T0_E15difference_typeERKSE_SH_
FNDA:0,_ZN9__gnu_cxxmiIPNSt7__cxx1112basic_stringIcSt11char_traitsIcESaIcEEESt6vectorIS6_SaIS6_EEEENS_17__normal_iteratorIT_T0_E15difference_typeERKSE_SH_
FN:1054,_ZNSt13move_iteratorIPNSt7__cxx1112basic_stringIcSt11char_traitsIcESaIcEEEEC2ES6_
FNDA:0,_ZNSt13move_iteratorIPNSt7__cxx1112basic_stringIcSt11char_traitsIcESaIcEEEEC2ES6_
FN:1063,_ZNKSt13move_iteratorIPNSt7__cxx1112basic_stringIcSt11char_traitsIcESaIcEEEE4baseEv
FNDA:0,_ZNKSt13move_iteratorIPNSt7__cxx1112basic_stringIcSt11char_traitsIcESaIcEEEE4baseEv
FN:1067,_ZNKSt13move_iteratorIPNSt7__cxx1112basic_stringIcSt11char_traitsIcESaIcEEEEdeEv
FNDA:0,_ZNKSt13move_iteratorIPNSt7__cxx1112basic_stringIcSt11char_traitsIcESaIcEEEEdeEv
FN:1075,_ZNSt13move_iteratorIPNSt7__cxx1112basic_stringIcSt11char_traitsIcESaIcEEEEppEv
FNDA:0,_ZNSt13move_iteratorIPNSt7__cxx1112basic_stringIcSt11char_traitsIcESaIcEEEEppEv
FN:1142,_ZSteqIPNSt7__cxx1112basic_stringIcSt11char_traitsIcESaIcEEEEbRKSt13move_iteratorIT_ESB_
FNDA:0,_ZSteqIPNSt7__cxx1112basic_stringIcSt11char_traitsIcESaIcEEEEbRKSt13move_iteratorIT_ESB_
FN:1154,_ZStneIPNSt7__cxx1112basic_stringIcSt11char_traitsIcESaIcEEEEbRKSt13move_iteratorIT_ESB_
FNDA:0,_ZStneIPNSt7__cxx1112basic_stringIcSt11char_traitsIcESaIcEEEEbRKSt13move_iteratorIT_ESB_
FN:1239,_ZSt32__make_move_if_noexcept_iteratorINSt7__cxx1112basic_stringIcSt11char_traitsIcESaIcEEESt13move_iteratorIPS5_EET0_PT_
FNDA:0,_ZSt32__make_move_if_noexcept_iteratorINSt7__cxx1112basic_stringIcSt11char_traitsIcESaIcEEESt13move_iteratorIPS5_EET0_PT_
DA:803,10
DA:804,10
DA:803,0
DA:804,0
DA:816,0
DA:817,0
DA:816,58
DA:817,58
DA:824,0
DA:826,0
DA:827,0
DA:824,58
DA:826,58
DA:827,58
DA:868,10
DA:869,10
DA:868,0
DA:869,0
DA:868,62
DA:869,62
DA:904,5
DA:907,5
DA:904,31
DA:907,31
DA:986,0
DA:989,0
DA:1054,0
DA:1055,0
DA:1063,0
DA:1064,0
DA:1067,0
DA:1068,0
DA:1075,0
DA:1077,0
DA:1078,0
DA:1142,0
DA:1144,0
DA:1154,0
DA:1156,0
DA:1239,0
DA:1240,0
end_of_record
SF:/usr/include/c++/9/bits/deque.tcc
FN:854,_ZNSt5dequeIN4Json6Reader9ErrorInfoESaIS2_EE19_M_destroy_data_auxESt15_Deque_iteratorIS2_RS2_PS2_ES8_
FNDA:0,_ZNSt5dequeIN4Json6Reader9ErrorInfoESaIS2_EE19_M_destroy_data_auxESt15_Deque_iteratorIS2_RS2_PS2_ES8_
DA:854,0
DA:857,0
DA:858,0
DA:859,0
DA:860,0
DA:862,0
DA:864,0
DA:865,0
DA:866,0
DA:867,0
DA:870,0
DA:871,0
DA:872,0
end_of_record
SF:/usr/include/gtest/gtest-message.h
end_of_record
SF:/usr/include/c++/9/utility
FN:174,_ZNSt10__pair_getILm0EE5__getIKcP8TrieNodeEERT_RSt4pairIS5_T0_E
FNDA:28001,_ZNSt10__pair_getILm0EE5__getIKcP8TrieNodeEERT_RSt4pairIS5_T0_E
FN:184,_ZNSt10__pair_getILm0EE11__const_getIKcP8TrieNodeEERKT_RKSt4pairIS5_T0_E
FNDA:349,_ZNSt10__pair_getILm0EE11__const_getIKcP8TrieNodeEERKT_RKSt4pairIS5_T0_E
FN:219,_ZSt3getILm0EKcP8TrieNodeERNSt13tuple_elementIXT_ESt4pairIT0_T1_EE4typeERS7_
FNDA:28001,_ZSt3getILm0EKcP8TrieNodeERNSt13tuple_elementIXT_ESt4pairIT0_T1_EE4typeERS7_
FN:229,_ZSt3getILm0EKcP8TrieNodeERKNSt13tuple_elementIXT_ESt4pairIT0_T1_EE4typeERKS7_
FNDA:349,_ZSt3getILm0EKcP8TrieNodeERKNSt13tuple_elementIXT_ESt4pairIT0_T1_EE4typeERKS7_
DA:174,28001
DA:175,28001
DA:184,349
DA:185,349
DA:219,28001
DA:220,28001
DA:229,349
DA:230,349
end_of_record
SF:/usr/include/gtest/gtest.h
FN:312,_ZNK7testing15AssertionResultcvbEv
FNDA:5,_ZNK7testing15AssertionResultcvbEv
FN:321,_ZNK7testing15AssertionResult7messageEv
FNDA:0,_ZNK7testing15AssertionResult7messageEv
FN:325,_ZNK7testing15AssertionResult15failure_messageEv
FNDA:0,_ZNK7testing15AssertionResult15failure_messageEv
FN:417,_ZN7testing4Test14SetUpTestSuiteEv
FNDA:0,_ZN7testing4Test14SetUpTestSuiteEv
FN:427,_ZN7testing4Test17TearDownTestSuiteEv
FNDA:0,_ZN7testing4Test17TearDownTestSuiteEv
FN:431,_ZN7testing4Test16TearDownTestCaseEv
FNDA:0,_ZN7testing4Test16TearDownTestCaseEv
FN:432,_ZN7testing4Test13SetUpTestCaseEv
FNDA:0,_ZN7testing4Test13SetUpTestCaseEv
FN:513,_ZN7testing4Test5SetupEv
FNDA:0,_ZN7testing4Test5SetupEv
FN:1504,_ZN7testing8internal18CmpHelperEQFailureIibEENS_15AssertionResultEPKcS4_RKT_RKT0_
FNDA:0,_ZN7testing8internal18CmpHelperEQFailureIibEENS_15AssertionResultEPKcS4_RKT_RKT0_
FN:1523,_ZN7testing8internal11CmpHelperEQIibEENS_15AssertionResultEPKcS4_RKT_RKT0_
FNDA:5,_ZN7testing8internal11CmpHelperEQIibEENS_15AssertionResultEPKcS4_RKT_RKT0_
FN:1551,_ZN7testing8internal8EqHelper7CompareIibLPv0EEENS_15AssertionResultEPKcS6_RKT_RKT0_
FNDA:5,_ZN7testing8internal8EqHelper7CompareIibLPv0EEENS_15AssertionResultEPKcS6_RKT_RKT0_
FN:2472,_Z13RUN_ALL_TESTSv
FNDA:1,_Z13RUN_ALL_TESTSv
DA:312,5
DA:321,0
DA:322,0
DA:325,0
DA:417,0
DA:427,0
DA:431,0
DA:432,0
DA:513,0
DA:1504,0
DA:1511,0
DA:1523,5
DA:1527,5
DA:1528,5
DA:1531,0
DA:1551,5
DA:1554,5
DA:2472,1
DA:2473,1
end_of_record
SF:/usr/include/c++/9/bits/vector.tcc
FN:300,_ZNSt6vectorINSt7__cxx1112basic_stringIcSt11char_traitsIcESaIcEEESaIS5_EE13_M_assign_auxIPKS5_EEvT_SB_St20forward_iterator_tag
FNDA:0,_ZNSt6vectorINSt7__cxx1112basic_stringIcSt11char_traitsIcESaIcEEESaIS5_EE13_M_assign_auxIPKS5_EEvT_SB_St20forward_iterator_tag
FN:426,_ZNSt6vectorINSt7__cxx1112basic_stringIcSt11char_traitsIcESaIcEEESaIS5_EE17_M_realloc_insertIJRKS5_EEEvN9__gnu_cxx17__normal_iteratorIPS5_S7_EEDpOT_
FNDA:0,_ZNSt6vectorINSt7__cxx1112basic_stringIcSt11char_traitsIcESaIcEEESaIS5_EE17_M_realloc_insertIJRKS5_EEEvN9__gnu_cxx17__normal_iteratorIPS5_S7_EEDpOT_
DA:300,0
DA:304,0
DA:306,0
DA:308,0
DA:309,0
DA:310,0
DA:311,0
DA:313,0
DA:314,0
DA:315,0
DA:316,0
DA:317,0
DA:318,0
DA:320,0
DA:321,0
DA:324,0
DA:325,0
DA:326,0
DA:327,0
DA:329,0
DA:330,0
DA:332,0
DA:335,0
DA:426,0
DA:435,0
DA:437,0
DA:438,0
DA:439,0
DA:440,0
DA:441,0
DA:449,0
DA:450,0
DA:456,0
DA:459,0
DA:461,0
DA:462,0
DA:464,0
DA:466,0
DA:467,0
DA:474,0
DA:475,0
DA:477,0
DA:481,0
DA:482,0
DA:485,0
DA:487,0
DA:488,0
DA:489,0
DA:491,0
DA:492,0
DA:493,0
DA:496,0
DA:498,0
DA:500,0
DA:501,0
DA:502,0
DA:503,0
DA:504,0
DA:505,0
end_of_record
SF:/usr/include/c++/9/bits/stl_stack.h
end_of_record
SF:/usr/include/c++/9/iostream
end_of_record
SF:/usr/include/c++/9/bits/stl_function.h
FN:355,_ZNKSt8equal_toIcEclERKcS2_
FNDA:14487,_ZNKSt8equal_toIcEclERKcS2_
DA:355,14487
DA:356,14487
end_of_record
SF:/usr/include/c++/9/ext/new_allocator.h
FN:80,_ZN9__gnu_cxx13new_allocatorIcEC2Ev
FNDA:0,_ZN9__gnu_cxx13new_allocatorIcEC2Ev
FN:80,_ZN9__gnu_cxx13new_allocatorINSt7__cxx1112basic_stringIcSt11char_traitsIcESaIcEEEEC2Ev
FNDA:13767,_ZN9__gnu_cxx13new_allocatorINSt7__cxx1112basic_stringIcSt11char_traitsIcESaIcEEEEC2Ev
FN:80,_ZN9__gnu_cxx13new_allocatorIPN4Json6Reader9ErrorInfoEEC2Ev
FNDA:0,_ZN9__gnu_cxx13new_allocatorIPN4Json6Reader9ErrorInfoEEC2Ev
FN:80,_ZN9__gnu_cxx13new_allocatorIPPN4Json5ValueEEC2Ev
FNDA:0,_ZN9__gnu_cxx13new_allocatorIPPN4Json5ValueEEC2Ev
FN:80,_ZN9__gnu_cxx13new_allocatorINSt8__detail10_Hash_nodeISt4pairIKcP8TrieNodeELb0EEEEC2Ev
FNDA:13767,_ZN9__gnu_cxx13new_allocatorINSt8__detail10_Hash_nodeISt4pairIKcP8TrieNodeELb0EEEEC2Ev
FN:80,_ZN9__gnu_cxx13new_allocatorIPNSt8__detail15_Hash_node_baseEEC2Ev
FNDA:13517,_ZN9__gnu_cxx13new_allocatorIPNSt8__detail15_Hash_node_baseEEC2Ev
FN:83,_ZN9__gnu_cxx13new_allocatorINSt7__cxx1112basic_stringIcSt11char_traitsIcESaIcEEEEC2ERKS7_
FNDA:10,_ZN9__gnu_cxx13new_allocatorINSt7__cxx1112basic_stringIcSt11char_traitsIcESaIcEEEEC2ERKS7_
FN:83,_ZN9__gnu_cxx13new_allocatorINSt8__detail10_Hash_nodeISt4pairIKcP8TrieNodeELb0EEEEC2ERKS9_
FNDA:10,_ZN9__gnu_cxx13new_allocatorINSt8__detail10_Hash_nodeISt4pairIKcP8TrieNodeELb0EEEEC2ERKS9_
FN:83,_ZN9__gnu_cxx13new_allocatorIcEC2ERKS1_
FNDA:0,_ZN9__gnu_cxx13new_allocatorIcEC2ERKS1_
FN:89,_ZN9__gnu_cxx13new_allocatorIPNSt8__detail15_Hash_node_baseEED2Ev
FNDA:13517,_ZN9__gnu_cxx13new_allocatorIPNSt8__detail15_Hash_node_baseEED2Ev
FN:89,_ZN9__gnu_cxx13new_allocatorIcED2Ev
FNDA:0,_ZN9__gnu_cxx13new_allocatorIcED2Ev
FN:89,_ZN9__gnu_cxx13new_allocatorINSt8__detail10_Hash_nodeISt4pairIKcP8TrieNodeELb0EEEED2Ev
FNDA:13,_ZN9__gnu_cxx13new_allocatorINSt8__detail10_Hash_nodeISt4pairIKcP8TrieNodeELb0EEEED2Ev
FN:89,_ZN9__gnu_cxx13new_allocatorIPN4Json6Reader9ErrorInfoEED2Ev
FNDA:0,_ZN9__gnu_cxx13new_allocatorIPN4Json6Reader9ErrorInfoEED2Ev
FN:89,_ZN9__gnu_cxx13new_allocatorIPPN4Json5ValueEED2Ev
FNDA:0,_ZN9__gnu_cxx13new_allocatorIPPN4Json5ValueEED2Ev
FN:89,_ZN9__gnu_cxx13new_allocatorINSt7__cxx1112basic_stringIcSt11char_traitsIcESaIcEEEED2Ev
FNDA:14,_ZN9__gnu_cxx13new_allocatorINSt7__cxx1112basic_stringIcSt11char_traitsIcESaIcEEEED2Ev
FN:89,_ZN9__gnu_cxx13new_allocatorIPN4Json5ValueEED2Ev
FNDA:0,_ZN9__gnu_cxx13new_allocatorIPN4Json5ValueEED2Ev
FN:89,_ZN9__gnu_cxx13new_allocatorIN4Json6Reader9ErrorInfoEED2Ev
FNDA:0,_ZN9__gnu_cxx13new_allocatorIN4Json6Reader9ErrorInfoEED2Ev
FN:102,_ZN9__gnu_cxx13new_allocatorIPNSt8__detail15_Hash_node_baseEE8allocateEmPKv
FNDA:13514,_ZN9__gnu_cxx13new_allocatorIPNSt8__detail15_Hash_node_baseEE8allocateEmPKv
FN:102,_ZN9__gnu_cxx13new_allocatorINSt7__cxx1112basic_stringIcSt11char_traitsIcESaIcEEEE8allocateEmPKv
FNDA:0,_ZN9__gnu_cxx13new_allocatorINSt7__cxx1112basic_stringIcSt11char_traitsIcESaIcEEEE8allocateEmPKv
FN:102,_ZN9__gnu_cxx13new_allocatorINSt8__detail10_Hash_nodeISt4pairIKcP8TrieNodeELb0EEEE8allocateEmPKv
FNDA:13761,_ZN9__gnu_cxx13new_allocatorINSt8__detail10_Hash_nodeISt4pairIKcP8TrieNodeELb0EEEE8allocateEmPKv
FN:119,_ZN9__gnu_cxx13new_allocatorIPNSt8__detail15_Hash_node_baseEE10deallocateEPS3_m
FNDA:3,_ZN9__gnu_cxx13new_allocatorIPNSt8__detail15_Hash_node_baseEE10deallocateEPS3_m
FN:119,_ZN9__gnu_cxx13new_allocatorINSt7__cxx1112basic_stringIcSt11char_traitsIcESaIcEEEE10deallocateEPS6_m
FNDA:1,_ZN9__gnu_cxx13new_allocatorINSt7__cxx1112basic_stringIcSt11char_traitsIcESaIcEEEE10deallocateEPS6_m
FN:119,_ZN9__gnu_cxx13new_allocatorIN4Json6Reader9ErrorInfoEE10deallocateEPS3_m
FNDA:0,_ZN9__gnu_cxx13new_allocatorIN4Json6Reader9ErrorInfoEE10deallocateEPS3_m
FN:119,_ZN9__gnu_cxx13new_allocatorIPN4Json5ValueEE10deallocateEPS3_m
FNDA:0,_ZN9__gnu_cxx13new_allocatorIPN4Json5ValueEE10deallocateEPS3_m
FN:119,_ZN9__gnu_cxx13new_allocatorINSt8__detail10_Hash_nodeISt4pairIKcP8TrieNodeELb0EEEE10deallocateEPS8_m
FNDA:0,_ZN9__gnu_cxx13new_allocatorINSt8__detail10_Hash_nodeISt4pairIKcP8TrieNodeELb0EEEE10deallocateEPS8_m
FN:119,_ZN9__gnu_cxx13new_allocatorIPPN4Json5ValueEE10deallocateEPS4_m
FNDA:0,_ZN9__gnu_cxx13new_allocatorIPPN4Json5ValueEE10deallocateEPS4_m
FN:119,_ZN9__gnu_cxx13new_allocatorIPN4Json6Reader9ErrorInfoEE10deallocateEPS4_m
FNDA:0,_ZN9__gnu_cxx13new_allocatorIPN4Json6Reader9ErrorInfoEE10deallocateEPS4_m
FN:132,_ZNK9__gnu_cxx13new_allocatorIPNSt8__detail15_Hash_node_baseEE8max_sizeEv
FNDA:13514,_ZNK9__gnu_cxx13new_allocatorIPNSt8__detail15_Hash_node_baseEE8max_sizeEv
FN:132,_ZNK9__gnu_cxx13new_allocatorINSt8__detail10_Hash_nodeISt4pairIKcP8TrieNodeELb0EEEE8max_sizeEv
FNDA:13761,_ZNK9__gnu_cxx13new_allocatorINSt8__detail10_Hash_nodeISt4pairIKcP8TrieNodeELb0EEEE8max_sizeEv
FN:132,_ZNK9__gnu_cxx13new_allocatorINSt7__cxx1112basic_stringIcSt11char_traitsIcESaIcEEEE8max_sizeEv
FNDA:0,_ZNK9__gnu_cxx13new_allocatorINSt7__cxx1112basic_stringIcSt11char_traitsIcESaIcEEEE8max_sizeEv
FN:144,_ZN9__gnu_cxx13new_allocatorINSt7__cxx1112basic_stringIcSt11char_traitsIcESaIcEEEE9constructIS6_JRKS6_EEEvPT_DpOT0_
FNDA:0,_ZN9__gnu_cxx13new_allocatorINSt7__cxx1112basic_stringIcSt11char_traitsIcESaIcEEEE9constructIS6_JRKS6_EEEvPT_DpOT0_
FN:144,_ZN9__gnu_cxx13new_allocatorINSt8__detail10_Hash_nodeISt4pairIKcP8TrieNodeELb0EEEE9constructIS7_JRKS7_EEEvPT_DpOT0_
FNDA:0,_ZN9__gnu_cxx13new_allocatorINSt8__detail10_Hash_nodeISt4pairIKcP8TrieNodeELb0EEEE9constructIS7_JRKS7_EEEvPT_DpOT0_
FN:144,_ZN9__gnu_cxx13new_allocatorINSt8__detail10_Hash_nodeISt4pairIKcP8TrieNodeELb0EEEE9constructIS7_JRKSt21piecewise_construct_tSt5tupleIJRS4_EESE_IJEEEEEvPT_DpOT0_
FNDA:13761,_ZN9__gnu_cxx13new_allocatorINSt8__detail10_Hash_nodeISt4pairIKcP8TrieNodeELb0EEEE9constructIS7_JRKSt21piecewise_construct_tSt5tupleIJRS4_EESE_IJEEEEEvPT_DpOT0_
FN:144,_ZN9__gnu_cxx13new_allocatorINSt7__cxx1112basic_stringIcSt11char_traitsIcESaIcEEEE9constructIS6_JS6_EEEvPT_DpOT0_
FNDA:0,_ZN9__gnu_cxx13new_allocatorINSt7__cxx1112basic_stringIcSt11char_traitsIcESaIcEEEE9constructIS6_JS6_EEEvPT_DpOT0_
FN:150,_ZN9__gnu_cxx13new_allocatorINSt7__cxx1112basic_stringIcSt11char_traitsIcESaIcEEEE7destroyIS6_EEvPT_
FNDA:0,_ZN9__gnu_cxx13new_allocatorINSt7__cxx1112basic_stringIcSt11char_traitsIcESaIcEEEE7destroyIS6_EEvPT_
FN:150,_ZN9__gnu_cxx13new_allocatorINSt8__detail10_Hash_nodeISt4pairIKcP8TrieNodeELb0EEEE7destroyIS7_EEvPT_
FNDA:0,_ZN9__gnu_cxx13new_allocatorINSt8__detail10_Hash_nodeISt4pairIKcP8TrieNodeELb0EEEE7destroyIS7_EEvPT_
DA:80,0
DA:80,0
DA:80,13517
DA:80,13767
DA:80,13767
DA:80,0
DA:83,10
DA:83,10
DA:83,0
DA:89,13517
DA:89,0
DA:89,0
DA:89,0
DA:89,0
DA:89,14
DA:89,13
DA:89,0
DA:102,13514
DA:104,13514
DA:105,0
DA:114,13514
DA:102,0
DA:104,0
DA:105,0
DA:114,0
DA:102,13761
DA:104,13761
DA:105,0
DA:114,13761
DA:119,0
DA:128,0
DA:129,0
DA:119,0
DA:128,0
DA:129,0
DA:119,3
DA:128,3
DA:129,3
DA:119,0
DA:128,0
DA:129,0
DA:119,0
DA:128,0
DA:129,0
DA:119,0
DA:128,0
DA:129,0
DA:119,1
DA:128,1
DA:129,1
DA:132,13514
DA:135,13514
DA:132,0
DA:135,0
DA:132,13761
DA:135,13761
DA:144,0
DA:146,0
DA:144,13761
DA:146,13761
DA:144,0
DA:146,0
DA:144,0
DA:146,0
DA:150,0
DA:152,0
DA:150,0
DA:152,0
end_of_record
SF:/usr/include/c++/9/tuple
FN:113,_ZNSt10_Head_baseILm1ESt14default_deleteINSt7__cxx1112basic_stringIcSt11char_traitsIcESaIcEEEELb1EE7_M_headERS8_
FNDA:0,_ZNSt10_Head_baseILm1ESt14default_deleteINSt7__cxx1112basic_stringIcSt11char_traitsIcESaIcEEEELb1EE7_M_headERS8_
FN:113,_ZNSt10_Head_baseILm1ESt14default_deleteINSt7__cxx1118basic_stringstreamIcSt11char_traitsIcESaIcEEEELb1EE7_M_headERS8_
FNDA:0,_ZNSt10_Head_baseILm1ESt14default_deleteINSt7__cxx1118basic_stringstreamIcSt11char_traitsIcESaIcEEEELb1EE7_M_headERS8_
FN:125,_ZNSt10_Head_baseILm0ERKcLb0EEC2ES1_
FNDA:27522,_ZNSt10_Head_baseILm0ERKcLb0EEC2ES1_
FN:132,_ZNSt10_Head_baseILm0EiLb0EEC2IiEEOT_
FNDA:2,_ZNSt10_Head_baseILm0EiLb0EEC2IiEEOT_
FN:132,_ZNSt10_Head_baseILm0EbLb0EEC2IiEEOT_
FNDA:2,_ZNSt10_Head_baseILm0EbLb0EEC2IiEEOT_
FN:132,_ZNSt10_Head_baseILm1EP8TrieNodeLb0EEC2IRS1_EEOT_
FNDA:2,_ZNSt10_Head_baseILm1EP8TrieNodeLb0EEC2IRS1_EEOT_
FN:132,_ZNSt10_Head_baseILm1EP8TrieNodeLb0EEC2IS1_EEOT_
FNDA:2,_ZNSt10_Head_baseILm1EP8TrieNodeLb0EEC2IS1_EEOT_
FN:160,_ZNSt10_Head_baseILm1EP8TrieNodeLb0EE7_M_headERS2_
FNDA:4,_ZNSt10_Head_baseILm1EP8TrieNodeLb0EE7_M_headERS2_
FN:160,_ZNSt10_Head_baseILm0EPNSt7__cxx1112basic_stringIcSt11char_traitsIcESaIcEEELb0EE7_M_headERS7_
FNDA:5,_ZNSt10_Head_baseILm0EPNSt7__cxx1112basic_stringIcSt11char_traitsIcESaIcEEELb0EE7_M_headERS7_
FN:160,_ZNSt10_Head_baseILm0EPNSt7__cxx1118basic_stringstreamIcSt11char_traitsIcESaIcEEELb0EE7_M_headERS7_
FNDA:0,_ZNSt10_Head_baseILm0EPNSt7__cxx1118basic_stringstreamIcSt11char_traitsIcESaIcEEELb0EE7_M_headERS7_
FN:160,_ZNSt10_Head_baseILm0EiLb0EE7_M_headERS0_
FNDA:2,_ZNSt10_Head_baseILm0EiLb0EE7_M_headERS0_
FN:160,_ZNSt10_Head_baseILm0ERKcLb0EE7_M_headERS2_
FNDA:27522,_ZNSt10_Head_baseILm0ERKcLb0EE7_M_headERS2_
FN:160,_ZNSt10_Head_baseILm0EbLb0EE7_M_headERS0_
FNDA:2,_ZNSt10_Head_baseILm0EbLb0EE7_M_headERS0_
FN:163,_ZNSt10_Head_baseILm0EPNSt7__cxx1112basic_stringIcSt11char_traitsIcESaIcEEELb0EE7_M_headERKS7_
FNDA:0,_ZNSt10_Head_baseILm0EPNSt7__cxx1112basic_stringIcSt11char_traitsIcESaIcEEELb0EE7_M_headERKS7_
FN:195,_ZNSt11_Tuple_implILm0EJiP8TrieNodeEE7_M_headERS2_
FNDA:2,_ZNSt11_Tuple_implILm0EJiP8TrieNodeEE7_M_headERS2_
FN:195,_ZNSt11_Tuple_implILm0EJPNSt7__cxx1112basic_stringIcSt11char_traitsIcESaIcEEESt14default_deleteIS5_EEE7_M_headERS9_
FNDA:5,_ZNSt11_Tuple_implILm0EJPNSt7__cxx1112basic_stringIcSt11char_traitsIcESaIcEEESt14default_deleteIS5_EEE7_M_headERS9_
FN:195,_ZNSt11_Tuple_implILm0EJPNSt7__cxx1118basic_stringstreamIcSt11char_traitsIcESaIcEEESt14default_deleteIS5_EEE7_M_headERS9_
FNDA:0,_ZNSt11_Tuple_implILm0EJPNSt7__cxx1118basic_stringstreamIcSt11char_traitsIcESaIcEEESt14default_deleteIS5_EEE7_M_headERS9_
FN:195,_ZNSt11_Tuple_implILm0EJbP8TrieNodeEE7_M_headERS2_
FNDA:2,_ZNSt11_Tuple_implILm0EJbP8TrieNodeEE7_M_headERS2_
FN:198,_ZNSt11_Tuple_implILm0EJPNSt7__cxx1112basic_stringIcSt11char_traitsIcESaIcEEESt14default_deleteIS5_EEE7_M_headERKS9_
FNDA:0,_ZNSt11_Tuple_implILm0EJPNSt7__cxx1112basic_stringIcSt11char_traitsIcESaIcEEESt14default_deleteIS5_EEE7_M_headERKS9_
FN:201,_ZNSt11_Tuple_implILm0EJiP8TrieNodeEE7_M_tailERS2_
FNDA:2,_ZNSt11_Tuple_implILm0EJiP8TrieNodeEE7_M_tailERS2_
FN:216,_ZNSt11_Tuple_implILm0EJiP8TrieNodeEEC2IiJRS1_EvEEOT_DpOT0_
FNDA:2,_ZNSt11_Tuple_implILm0EJiP8TrieNodeEEC2IiJRS1_EvEEOT_DpOT0_
FN:239,_ZNSt11_Tuple_implILm0EJbP8TrieNodeEEC2IiJS1_EEEOS_ILm0EJT_DpT0_EE
FNDA:2,_ZNSt11_Tuple_implILm0EJbP8TrieNodeEEC2IiJS1_EEEOS_ILm0EJT_DpT0_EE
FN:334,_ZNSt11_Tuple_implILm1EJSt14default_deleteINSt7__cxx1118basic_stringstreamIcSt11char_traitsIcESaIcEEEEEE7_M_headERS8_
FNDA:0,_ZNSt11_Tuple_implILm1EJSt14default_deleteINSt7__cxx1118basic_stringstreamIcSt11char_traitsIcESaIcEEEEEE7_M_headERS8_
FN:334,_ZNSt11_Tuple_implILm1EJSt14default_deleteINSt7__cxx1112basic_stringIcSt11char_traitsIcESaIcEEEEEE7_M_headERS8_
FNDA:0,_ZNSt11_Tuple_implILm1EJSt14default_deleteINSt7__cxx1112basic_stringIcSt11char_traitsIcESaIcEEEEEE7_M_headERS8_
FN:334,_ZNSt11_Tuple_implILm0EJRKcEE7_M_headERS2_
FNDA:27522,_ZNSt11_Tuple_implILm0EJRKcEE7_M_headERS2_
FN:334,_ZNSt11_Tuple_implILm1EJP8TrieNodeEE7_M_headERS2_
FNDA:4,_ZNSt11_Tuple_implILm1EJP8TrieNodeEE7_M_headERS2_
FN:343,_ZNSt11_Tuple_implILm0EJRKcEEC2ES1_
FNDA:13761,_ZNSt11_Tuple_implILm0EJRKcEEC2ES1_
FN:348,_ZNSt11_Tuple_implILm1EJP8TrieNodeEEC2IRS1_EEOT_
FNDA:2,_ZNSt11_Tuple_implILm1EJP8TrieNodeEEC2IRS1_EEOT_
FN:358,_ZNSt11_Tuple_implILm1EJP8TrieNodeEEC2EOS2_
FNDA:2,_ZNSt11_Tuple_implILm1EJP8TrieNodeEEC2EOS2_
FN:358,_ZNSt11_Tuple_implILm0EJRKcEEC2EOS2_
FNDA:13761,_ZNSt11_Tuple_implILm0EJRKcEEC2EOS2_
FN:588,_ZNSt5tupleIJRKcEEC2IvLb1EEES1_
FNDA:13761,_ZNSt5tupleIJRKcEEC2IvLb1EEES1_
FN:642,_ZNSt5tupleIJRKcEEC2EOS2_
FNDA:13761,_ZNSt5tupleIJRKcEEC2EOS2_
FN:968,_ZNSt5tupleIJiP8TrieNodeEEC2IiRS1_Lb1EEEOT_OT0_
FNDA:2,_ZNSt5tupleIJiP8TrieNodeEEC2IiRS1_Lb1EEEOT_OT0_
FN:1009,_ZNSt5tupleIJbP8TrieNodeEEC2IiS1_Lb1EEEOS_IJT_T0_EE
FNDA:2,_ZNSt5tupleIJbP8TrieNodeEEC2IiS1_Lb1EEEOS_IJT_T0_EE
FN:1309,_ZSt12__get_helperILm0EPNSt7__cxx1118basic_stringstreamIcSt11char_traitsIcESaIcEEEJSt14default_deleteIS5_EEERT0_RSt11_Tuple_implIXT_EJS9_DpT1_EE
FNDA:0,_ZSt12__get_helperILm0EPNSt7__cxx1118basic_stringstreamIcSt11char_traitsIcESaIcEEEJSt14default_deleteIS5_EEERT0_RSt11_Tuple_implIXT_EJS9_DpT1_EE
FN:1309,_ZSt12__get_helperILm1EP8TrieNodeJEERT0_RSt11_Tuple_implIXT_EJS2_DpT1_EE
FNDA:2,_ZSt12__get_helperILm1EP8TrieNodeJEERT0_RSt11_Tuple_implIXT_EJS2_DpT1_EE
FN:1309,_ZSt12__get_helperILm0EPNSt7__cxx1112basic_stringIcSt11char_traitsIcESaIcEEEJSt14default_deleteIS5_EEERT0_RSt11_Tuple_implIXT_EJS9_DpT1_EE
FNDA:5,_ZSt12__get_helperILm0EPNSt7__cxx1112basic_stringIcSt11char_traitsIcESaIcEEEJSt14default_deleteIS5_EEERT0_RSt11_Tuple_implIXT_EJS9_DpT1_EE
FN:1309,_ZSt12__get_helperILm1ESt14default_deleteINSt7__cxx1118basic_stringstreamIcSt11char_traitsIcESaIcEEEEJEERT0_RSt11_Tuple_implIXT_EJS8_DpT1_EE
FNDA:0,_ZSt12__get_helperILm1ESt14default_deleteINSt7__cxx1118basic_stringstreamIcSt11char_traitsIcESaIcEEEEJEERT0_RSt11_Tuple_implIXT_EJS8_DpT1_EE
FN:1309,_ZSt12__get_helperILm1ESt14default_deleteINSt7__cxx1112basic_stringIcSt11char_traitsIcESaIcEEEEJEERT0_RSt11_Tuple_implIXT_EJS8_DpT1_EE
FNDA:0,_ZSt12__get_helperILm1ESt14default_deleteINSt7__cxx1112basic_stringIcSt11char_traitsIcESaIcEEEEJEERT0_RSt11_Tuple_implIXT_EJS8_DpT1_EE
FN:1309,_ZSt12__get_helperILm0EbJP8TrieNodeEERT0_RSt11_Tuple_implIXT_EJS2_DpT1_EE
FNDA:2,_ZSt12__get_helperILm0EbJP8TrieNodeEERT0_RSt11_Tuple_implIXT_EJS2_DpT1_EE
FN:1309,_ZSt12__get_helperILm0ERKcJEERT0_RSt11_Tuple_implIXT_EJS2_DpT1_EE
FNDA:13761,_ZSt12__get_helperILm0ERKcJEERT0_RSt11_Tuple_implIXT_EJS2_DpT1_EE
FN:1314,_ZSt12__get_helperILm0EPNSt7__cxx1112basic_stringIcSt11char_traitsIcESaIcEEEJSt14default_deleteIS5_EEERKT0_RKSt11_Tuple_implIXT_EJS9_DpT1_EE
FNDA:0,_ZSt12__get_helperILm0EPNSt7__cxx1112basic_stringIcSt11char_traitsIcESaIcEEEJSt14default_deleteIS5_EEERKT0_RKSt11_Tuple_implIXT_EJS9_DpT1_EE
FN:1320,_ZSt3getILm1EJbP8TrieNodeEERNSt13tuple_elementIXT_ESt5tupleIJDpT0_EEE4typeERS6_
FNDA:2,_ZSt3getILm1EJbP8TrieNodeEERNSt13tuple_elementIXT_ESt5tupleIJDpT0_EEE4typeERS6_
FN:1320,_ZSt3getILm0EJbP8TrieNodeEERNSt13tuple_elementIXT_ESt5tupleIJDpT0_EEE4typeERS6_
FNDA:2,_ZSt3getILm0EJbP8TrieNodeEERNSt13tuple_elementIXT_ESt5tupleIJDpT0_EEE4typeERS6_
FN:1320,_ZSt3getILm0EJPNSt7__cxx1118basic_stringstreamIcSt11char_traitsIcESaIcEEESt14default_deleteIS5_EEERNSt13tuple_elementIXT_ESt5tupleIJDpT0_EEE4typeERSD_
FNDA:0,_ZSt3getILm0EJPNSt7__cxx1118basic_stringstreamIcSt11char_traitsIcESaIcEEESt14default_deleteIS5_EEERNSt13tuple_elementIXT_ESt5tupleIJDpT0_EEE4typeERSD_
FN:1320,_ZSt3getILm0EJPNSt7__cxx1112basic_stringIcSt11char_traitsIcESaIcEEESt14default_deleteIS5_EEERNSt13tuple_elementIXT_ESt5tupleIJDpT0_EEE4typeERSD_
FNDA:5,_ZSt3getILm0EJPNSt7__cxx1112basic_stringIcSt11char_traitsIcESaIcEEESt14default_deleteIS5_EEERNSt13tuple_elementIXT_ESt5tupleIJDpT0_EEE4typeERSD_
FN:1320,_ZSt3getILm1EJPNSt7__cxx1118basic_stringstreamIcSt11char_traitsIcESaIcEEESt14default_deleteIS5_EEERNSt13tuple_elementIXT_ESt5tupleIJDpT0_EEE4typeERSD_
FNDA:0,_ZSt3getILm1EJPNSt7__cxx1118basic_stringstreamIcSt11char_traitsIcESaIcEEESt14default_deleteIS5_EEERNSt13tuple_elementIXT_ESt5tupleIJDpT0_EEE4typeERSD_
FN:1320,_ZSt3getILm1EJPNSt7__cxx1112basic_stringIcSt11char_traitsIcESaIcEEESt14default_deleteIS5_EEERNSt13tuple_elementIXT_ESt5tupleIJDpT0_EEE4typeERSD_
FNDA:0,_ZSt3getILm1EJPNSt7__cxx1112basic_stringIcSt11char_traitsIcESaIcEEESt14default_deleteIS5_EEERNSt13tuple_elementIXT_ESt5tupleIJDpT0_EEE4typeERSD_
FN:1320,_ZSt3getILm0EJRKcEERNSt13tuple_elementIXT_ESt5tupleIJDpT0_EEE4typeERS6_
FNDA:13761,_ZSt3getILm0EJRKcEERNSt13tuple_elementIXT_ESt5tupleIJDpT0_EEE4typeERS6_
FN:1326,_ZSt3getILm0EJPNSt7__cxx1112basic_stringIcSt11char_traitsIcESaIcEEESt14default_deleteIS5_EEERKNSt13tuple_elementIXT_ESt5tupleIJDpT0_EEE4typeERKSD_
FNDA:0,_ZSt3getILm0EJPNSt7__cxx1112basic_stringIcSt11char_traitsIcESaIcEEESt14default_deleteIS5_EEERKNSt13tuple_elementIXT_ESt5tupleIJDpT0_EEE4typeERKSD_
FN:1470,_ZSt10make_tupleIJiRP8TrieNodeEESt5tupleIJDpNSt17__decay_and_stripIT_E6__typeEEEDpOS5_
FNDA:2,_ZSt10make_tupleIJiRP8TrieNodeEESt5tupleIJDpNSt17__decay_and_stripIT_E6__typeEEEDpOS5_
FN:1658,_ZNSt4pairIKcP8TrieNodeEC2IJRS0_EJEEESt21piecewise_construct_tSt5tupleIJDpT_EES7_IJDpT0_EE
FNDA:13761,_ZNSt4pairIKcP8TrieNodeEC2IJRS0_EJEEESt21piecewise_construct_tSt5tupleIJDpT_EES7_IJDpT0_EE
FN:1670,_ZNSt4pairIKcP8TrieNodeEC2IJRS0_EJLm0EEJEJEEERSt5tupleIJDpT_EERS6_IJDpT1_EESt12_Index_tupleIJXspT0_EEESF_IJXspT2_EEE
FNDA:13761,_ZNSt4pairIKcP8TrieNodeEC2IJRS0_EJLm0EEJEJEEERSt5tupleIJDpT_EERS6_IJDpT1_EESt12_Index_tupleIJXspT0_EEESF_IJXspT2_EEE
DA:113,0
DA:113,0
DA:125,27522
DA:126,27522
DA:132,2
DA:133,2
DA:132,2
DA:133,2
DA:132,2
DA:133,2
DA:132,2
DA:133,2
DA:160,27522
DA:160,5
DA:160,0
DA:160,2
DA:160,4
DA:160,2
DA:163,0
DA:195,5
DA:195,0
DA:195,2
DA:195,2
DA:198,0
DA:201,2
DA:216,2
DA:218,2
DA:239,2
DA:241,2
DA:243,4
DA:334,27522
DA:334,0
DA:334,0
DA:334,4
DA:343,13761
DA:344,13761
DA:348,2
DA:349,2
DA:358,13761
DA:360,13761
DA:358,2
DA:360,2
DA:588,13761
DA:589,13761
DA:642,13761
DA:968,2
DA:969,2
DA:1009,2
DA:1010,2
DA:1309,13761
DA:1310,13761
DA:1309,0
DA:1310,0
DA:1309,0
DA:1310,0
DA:1309,5
DA:1310,5
DA:1309,0
DA:1310,0
DA:1309,2
DA:1310,2
DA:1309,2
DA:1310,2
DA:1314,0
DA:1315,0
DA:1320,13761
DA:1321,13761
DA:1320,0
DA:1321,0
DA:1320,0
DA:1321,0
DA:1320,5
DA:1321,5
DA:1320,0
DA:1321,0
DA:1320,2
DA:1321,2
DA:1320,2
DA:1321,2
DA:1326,0
DA:1327,0
DA:1470,2
DA:1474,2
DA:1658,13761
DA:1663,13761
DA:1664,13761
DA:1670,13761
DA:1673,13761
DA:1674,13761
DA:1675,13761
end_of_record
SF:/usr/include/c++/9/bits/functional_hash.h
FN:127,_ZNKSt4hashIcEclEc
FNDA:42231,_ZNKSt4hashIcEclEc
DA:127,42231
end_of_record
SF:/usr/include/c++/9/bits/stl_deque.h
FN:93,_ZSt16__deque_buf_sizem
FNDA:0,_ZSt16__deque_buf_sizem
FN:167,_ZNSt15_Deque_iteratorIPN4Json5ValueERS2_PS2_EC2ERKS5_
FNDA:0,_ZNSt15_Deque_iteratorIPN4Json5ValueERS2_PS2_EC2ERKS5_
FN:167,_ZNSt15_Deque_iteratorIN4Json6Reader9ErrorInfoERS2_PS2_EC2ERKS5_
FNDA:0,_ZNSt15_Deque_iteratorIN4Json6Reader9ErrorInfoERS2_PS2_EC2ERKS5_
FN:605,_ZNSt11_Deque_baseIN4Json6Reader9ErrorInfoESaIS2_EE19_M_get_Tp_allocatorEv
FNDA:0,_ZNSt11_Deque_baseIN4Json6Reader9ErrorInfoESaIS2_EE19_M_get_Tp_allocatorEv
FN:605,_ZNSt11_Deque_baseIPN4Json5ValueESaIS2_EE19_M_get_Tp_allocatorEv
FNDA:0,_ZNSt11_Deque_baseIPN4Json5ValueESaIS2_EE19_M_get_Tp_allocatorEv
FN:609,_ZNKSt11_Deque_baseIPN4Json5ValueESaIS2_EE19_M_get_Tp_allocatorEv
FNDA:0,_ZNKSt11_Deque_baseIPN4Json5ValueESaIS2_EE19_M_get_Tp_allocatorEv
FN:609,_ZNKSt11_Deque_baseIN4Json6Reader9ErrorInfoESaIS2_EE19_M_get_Tp_allocatorEv
FNDA:0,_ZNKSt11_Deque_baseIN4Json6Reader9ErrorInfoESaIS2_EE19_M_get_Tp_allocatorEv
FN:613,_ZNKSt11_Deque_baseIPN4Json5ValueESaIS2_EE20_M_get_map_allocatorEv
FNDA:0,_ZNKSt11_Deque_baseIPN4Json5ValueESaIS2_EE20_M_get_map_allocatorEv
FN:613,_ZNKSt11_Deque_baseIN4Json6Reader9ErrorInfoESaIS2_EE20_M_get_map_allocatorEv
FNDA:0,_ZNKSt11_Deque_baseIN4Json6Reader9ErrorInfoESaIS2_EE20_M_get_map_allocatorEv
FN:624,_ZNSt11_Deque_baseIPN4Json5ValueESaIS2_EE18_M_deallocate_nodeEPS2_
FNDA:0,_ZNSt11_Deque_baseIPN4Json5ValueESaIS2_EE18_M_deallocate_nodeEPS2_
FN:624,_ZNSt11_Deque_baseIN4Json6Reader9ErrorInfoESaIS2_EE18_M_deallocate_nodeEPS2_
FNDA:0,_ZNSt11_Deque_baseIN4Json6Reader9ErrorInfoESaIS2_EE18_M_deallocate_nodeEPS2_
FN:638,_ZNSt11_Deque_baseIPN4Json5ValueESaIS2_EE17_M_deallocate_mapEPPS2_m
FNDA:0,_ZNSt11_Deque_baseIPN4Json5ValueESaIS2_EE17_M_deallocate_mapEPPS2_m
FN:638,_ZNSt11_Deque_baseIN4Json6Reader9ErrorInfoESaIS2_EE17_M_deallocate_mapEPPS2_m
FNDA:0,_ZNSt11_Deque_baseIN4Json6Reader9ErrorInfoESaIS2_EE17_M_deallocate_mapEPPS2_m
FN:678,_ZNSt11_Deque_baseIN4Json6Reader9ErrorInfoESaIS2_EED2Ev
FNDA:0,_ZNSt11_Deque_baseIN4Json6Reader9ErrorInfoESaIS2_EED2Ev
FN:678,_ZNSt11_Deque_baseIPN4Json5ValueESaIS2_EED2Ev
FNDA:0,_ZNSt11_Deque_baseIPN4Json5ValueESaIS2_EED2Ev
FN:756,_ZNSt11_Deque_baseIPN4Json5ValueESaIS2_EE16_M_destroy_nodesEPPS2_S6_
FNDA:0,_ZNSt11_Deque_baseIPN4Json5ValueESaIS2_EE16_M_destroy_nodesEPPS2_S6_
FN:756,_ZNSt11_Deque_baseIN4Json6Reader9ErrorInfoESaIS2_EE16_M_destroy_nodesEPPS2_S6_
FNDA:0,_ZNSt11_Deque_baseIN4Json6Reader9ErrorInfoESaIS2_EE16_M_destroy_nodesEPPS2_S6_
FN:889,_ZNSt5dequeIN4Json6Reader9ErrorInfoESaIS2_EE14_S_buffer_sizeEv
FNDA:0,_ZNSt5dequeIN4Json6Reader9ErrorInfoESaIS2_EE14_S_buffer_sizeEv
FN:1071,_ZNSt5dequeIN4Json6Reader9ErrorInfoESaIS2_EED2Ev
FNDA:0,_ZNSt5dequeIN4Json6Reader9ErrorInfoESaIS2_EED2Ev
FN:1071,_ZNSt5dequeIPN4Json5ValueESaIS2_EED2Ev
FNDA:0,_ZNSt5dequeIPN4Json5ValueESaIS2_EED2Ev
FN:1193,_ZNSt5dequeIN4Json6Reader9ErrorInfoESaIS2_EE5beginEv
FNDA:0,_ZNSt5dequeIN4Json6Reader9ErrorInfoESaIS2_EE5beginEv
FN:1193,_ZNSt5dequeIPN4Json5ValueESaIS2_EE5beginEv
FNDA:0,_ZNSt5dequeIPN4Json5ValueESaIS2_EE5beginEv
FN:1210,_ZNSt5dequeIN4Json6Reader9ErrorInfoESaIS2_EE3endEv
FNDA:0,_ZNSt5dequeIN4Json6Reader9ErrorInfoESaIS2_EE3endEv
FN:1210,_ZNSt5dequeIPN4Json5ValueESaIS2_EE3endEv
FNDA:0,_ZNSt5dequeIPN4Json5ValueESaIS2_EE3endEv
FN:2113,_ZNSt5dequeIN4Json6Reader9ErrorInfoESaIS2_EE15_M_destroy_dataESt15_Deque_iteratorIS2_RS2_PS2_ES8_RKS3_
FNDA:0,_ZNSt5dequeIN4Json6Reader9ErrorInfoESaIS2_EE15_M_destroy_dataESt15_Deque_iteratorIS2_RS2_PS2_ES8_RKS3_
FN:2113,_ZNSt5dequeIPN4Json5ValueESaIS2_EE15_M_destroy_dataESt15_Deque_iteratorIS2_RS2_PS2_ES8_RKS3_
FNDA:0,_ZNSt5dequeIPN4Json5ValueESaIS2_EE15_M_destroy_dataESt15_Deque_iteratorIS2_RS2_PS2_ES8_RKS3_
DA:93,0
DA:95,0
DA:167,0
DA:168,0
DA:169,0
DA:167,0
DA:168,0
DA:169,0
DA:605,0
DA:606,0
DA:605,0
DA:606,0
DA:609,0
DA:610,0
DA:609,0
DA:610,0
DA:613,0
DA:614,0
DA:613,0
DA:614,0
DA:624,0
DA:627,0
DA:628,0
DA:624,0
DA:627,0
DA:628,0
DA:638,0
DA:640,0
DA:641,0
DA:642,0
DA:638,0
DA:640,0
DA:641,0
DA:642,0
DA:678,0
DA:681,0
DA:683,0
DA:684,0
DA:685,0
DA:687,0
DA:678,0
DA:681,0
DA:683,0
DA:684,0
DA:685,0
DA:687,0
DA:756,0
DA:760,0
DA:761,0
DA:762,0
DA:756,0
DA:760,0
DA:761,0
DA:762,0
DA:889,0
DA:890,0
DA:1071,0
DA:1072,0
DA:1071,0
DA:1072,0
DA:1193,0
DA:1194,0
DA:1193,0
DA:1194,0
DA:1210,0
DA:1211,0
DA:1210,0
DA:1211,0
DA:2113,0
DA:2117,0
DA:2118,0
DA:2113,0
DA:2118,0
end_of_record
SF:/mnt/c/users/elsar/dev/tiralabra/patternmatching/tests/trie_test.cpp
FN:19,_ZN36InsertAndSearchTest_SuffixFound_Test8TestBodyEv
FNDA:1,_ZN36InsertAndSearchTest_SuffixFound_Test8TestBodyEv
FN:19,_ZN36InsertAndSearchTest_SuffixFound_TestC2Ev
FNDA:1,_ZN36InsertAndSearchTest_SuffixFound_TestC2Ev
FN:29,_ZN39InsertAndSearchTest_SuffixNotFound_Test8TestBodyEv
FNDA:1,_ZN39InsertAndSearchTest_SuffixNotFound_Test8TestBodyEv
FN:29,_ZN39InsertAndSearchTest_SuffixNotFound_TestC2Ev
FNDA:1,_ZN39InsertAndSearchTest_SuffixNotFound_TestC2Ev
FN:39,_ZN26InsertTest_WordInsert_Test8TestBodyEv
FNDA:1,_ZN26InsertTest_WordInsert_Test8TestBodyEv
FN:39,_ZN26InsertTest_WordInsert_TestC2Ev
FNDA:1,_ZN26InsertTest_WordInsert_TestC2Ev
FN:47,main
FNDA:1,main
DA:19,1
DA:21,1
DA:22,1
DA:23,1
DA:24,1
DA:25,1
DA:19,1
DA:29,1
DA:31,1
DA:32,1
DA:33,1
DA:34,1
DA:35,1
DA:29,1
DA:39,1
DA:41,1
DA:42,1
DA:43,1
DA:39,1
DA:47,1
DA:49,1
DA:50,1
end_of_record
SF:/usr/include/c++/9/bits/basic_string.tcc
FN:206,_ZNSt7__cxx1112basic_stringIcSt11char_traitsIcESaIcEE12_M_constructIPcEEvT_S7_St20forward_iterator_tag
FNDA:0,_ZNSt7__cxx1112basic_stringIcSt11char_traitsIcESaIcEE12_M_constructIPcEEvT_S7_St20forward_iterator_tag
FN:206,_ZNSt7__cxx1112basic_stringIcSt11char_traitsIcESaIcEE12_M_constructIPKcEEvT_S8_St20forward_iterator_tag
FNDA:0,_ZNSt7__cxx1112basic_stringIcSt11char_traitsIcESaIcEE12_M_constructIPKcEEvT_S8_St20forward_iterator_tag
DA:206,0
DA:211,0
DA:212,0
DA:215,0
DA:217,0
DA:219,0
DA:220,0
DA:225,0
DA:226,0
DA:228,0
DA:229,0
DA:232,0
DA:233,0
DA:206,0
DA:211,0
DA:212,0
DA:215,0
DA:217,0
DA:219,0
DA:220,0
DA:225,0
DA:226,0
DA:228,0
DA:229,0
DA:232,0
DA:233,0
end_of_record
SF:/usr/include/c++/9/bits/stl_algo.h
FN:4332,_ZSt9transformIN9__gnu_cxx17__normal_iteratorIPcNSt7__cxx1112basic_stringIcSt11char_traitsIcESaIcEEEEES9_PFiiEET0_T_SD_SC_T1_
FNDA:2,_ZSt9transformIN9__gnu_cxx17__normal_iteratorIPcNSt7__cxx1112basic_stringIcSt11char_traitsIcESaIcEEEEES9_PFiiEET0_T_SD_SC_T1_
DA:4332,31
DA:4342,31
DA:4343,29
DA:4344,2
end_of_record
SF:/usr/include/c++/9/bits/hashtable_policy.h
FN:92,_ZNKSt8__detail10_Select1stclIRSt4pairIKcP8TrieNodeEEEDTcl3getILi0EEcl7forwardIT_Efp_EEEOS8_
FNDA:28001,_ZNKSt8__detail10_Select1stclIRSt4pairIKcP8TrieNodeEEEDTcl3getILi0EEcl7forwardIT_Efp_EEEOS8_
FN:92,_ZNKSt8__detail10_Select1stclIRKSt4pairIKcP8TrieNodeEEEDTcl3getILi0EEcl7forwardIT_Efp_EEEOS9_
FNDA:349,_ZNKSt8__detail10_Select1stclIRKSt4pairIKcP8TrieNodeEEEDTcl3getILi0EEcl7forwardIT_Efp_EEEOS9_
FN:218,_ZNSt8__detail15_Hash_node_baseC2Ev
FNDA:27533,_ZNSt8__detail15_Hash_node_baseC2Ev
FN:236,_ZNSt8__detail21_Hash_node_value_baseISt4pairIKcP8TrieNodeEE9_M_valptrEv
FNDA:69583,_ZNSt8__detail21_Hash_node_value_baseISt4pairIKcP8TrieNodeEE9_M_valptrEv
FN:240,_ZNKSt8__detail21_Hash_node_value_baseISt4pairIKcP8TrieNodeEE9_M_valptrEv
FNDA:349,_ZNKSt8__detail21_Hash_node_value_baseISt4pairIKcP8TrieNodeEE9_M_valptrEv
FN:244,_ZNSt8__detail21_Hash_node_value_baseISt4pairIKcP8TrieNodeEE4_M_vEv
FNDA:42061,_ZNSt8__detail21_Hash_node_value_baseISt4pairIKcP8TrieNodeEE4_M_vEv
FN:248,_ZNKSt8__detail21_Hash_node_value_baseISt4pairIKcP8TrieNodeEE4_M_vEv
FNDA:349,_ZNKSt8__detail21_Hash_node_value_baseISt4pairIKcP8TrieNodeEE4_M_vEv
FN:282,_ZNKSt8__detail10_Hash_nodeISt4pairIKcP8TrieNodeELb0EE7_M_nextEv
FNDA:409,_ZNKSt8__detail10_Hash_nodeISt4pairIKcP8TrieNodeELb0EE7_M_nextEv
FN:294,_ZNSt8__detail19_Node_iterator_baseISt4pairIKcP8TrieNodeELb0EEC2EPNS_10_Hash_nodeIS5_Lb0EEE
FNDA:41883,_ZNSt8__detail19_Node_iterator_baseISt4pairIKcP8TrieNodeELb0EEC2EPNS_10_Hash_nodeIS5_Lb0EEE
FN:304,_ZNSt8__detaileqISt4pairIKcP8TrieNodeELb0EEEbRKNS_19_Node_iterator_baseIT_XT0_EEESA_
FNDA:14061,_ZNSt8__detaileqISt4pairIKcP8TrieNodeELb0EEEbRKNS_19_Node_iterator_baseIT_XT0_EEESA_
FN:340,_ZNSt8__detail14_Node_iteratorISt4pairIKcP8TrieNodeELb0ELb0EEC2EPNS_10_Hash_nodeIS5_Lb0EEE
FNDA:41883,_ZNSt8__detail14_Node_iteratorISt4pairIKcP8TrieNodeELb0ELb0EEC2EPNS_10_Hash_nodeIS5_Lb0EEE
FN:348,_ZNKSt8__detail14_Node_iteratorISt4pairIKcP8TrieNodeELb0ELb0EEptEv
FNDA:13761,_ZNKSt8__detail14_Node_iteratorISt4pairIKcP8TrieNodeELb0ELb0EEptEv
FN:431,_ZNKSt8__detail18_Mod_range_hashingclEmm
FNDA:55745,_ZNKSt8__detail18_Mod_range_hashingclEmm
FN:449,_ZNSt8__detail20_Prime_rehash_policyC2Ef
FNDA:13767,_ZNSt8__detail20_Prime_rehash_policyC2Ef
FN:476,_ZNKSt8__detail20_Prime_rehash_policy8_M_stateEv
FNDA:13761,_ZNKSt8__detail20_Prime_rehash_policy8_M_stateEv
FN:484,_ZNSt8__detail20_Prime_rehash_policy8_M_resetEm
FNDA:0,_ZNSt8__detail20_Prime_rehash_policy8_M_resetEm
FN:689,_ZNSt8__detail9_Map_baseIcSt4pairIKcP8TrieNodeESaIS5_ENS_10_Select1stESt8equal_toIcESt4hashIcENS_18_Mod_range_hashingENS_20_Default_ranged_hashENS_20_Prime_rehash_policyENS_17_Hashtable_traitsILb0ELb0ELb1EEELb1EEixERS2_
FNDA:27821,_ZNSt8__detail9_Map_baseIcSt4pairIKcP8TrieNodeESaIS5_ENS_10_Select1stESt8equal_toIcESt4hashIcENS_18_Mod_range_hashingENS_20_Default_ranged_hashENS_20_Prime_rehash_policyENS_17_Hashtable_traitsILb0ELb0ELb1EEELb1EEixERS2_
FN:1096,_ZNSt8__detail21_Hashtable_ebo_helperILi0ESaINS_10_Hash_nodeISt4pairIKcP8TrieNodeELb0EEEELb1EEC2Ev
FNDA:13767,_ZNSt8__detail21_Hashtable_ebo_helperILi0ESaINS_10_Hash_nodeISt4pairIKcP8TrieNodeELb0EEEELb1EEC2Ev
FN:1099,_ZNSt8__detail21_Hashtable_ebo_helperILi0ESaINS_10_Hash_nodeISt4pairIKcP8TrieNodeELb0EEEELb1EEC2IS8_EEOT_
FNDA:5,_ZNSt8__detail21_Hashtable_ebo_helperILi0ESaINS_10_Hash_nodeISt4pairIKcP8TrieNodeELb0EEEELb1EEC2IS8_EEOT_
FN:1104,_ZNSt8__detail21_Hashtable_ebo_helperILi0ENS_10_Select1stELb1EE7_S_cgetERKS2_
FNDA:14836,_ZNSt8__detail21_Hashtable_ebo_helperILi0ENS_10_Select1stELb1EE7_S_cgetERKS2_
FN:1104,_ZNSt8__detail21_Hashtable_ebo_helperILi0ESaINS_10_Hash_nodeISt4pairIKcP8TrieNodeELb0EEEELb1EE7_S_cgetERKS9_
FNDA:5,_ZNSt8__detail21_Hashtable_ebo_helperILi0ESaINS_10_Hash_nodeISt4pairIKcP8TrieNodeELb0EEEELb1EE7_S_cgetERKS9_
FN:1104,_ZNSt8__detail21_Hashtable_ebo_helperILi0ESt8equal_toIcELb1EE7_S_cgetERKS3_
FNDA:14487,_ZNSt8__detail21_Hashtable_ebo_helperILi0ESt8equal_toIcELb1EE7_S_cgetERKS3_
FN:1104,_ZNSt8__detail21_Hashtable_ebo_helperILi2ENS_18_Mod_range_hashingELb1EE7_S_cgetERKS2_
FNDA:55745,_ZNSt8__detail21_Hashtable_ebo_helperILi2ENS_18_Mod_range_hashingELb1EE7_S_cgetERKS2_
FN:1104,_ZNSt8__detail21_Hashtable_ebo_helperILi1ESt4hashIcELb1EE7_S_cgetERKS3_
FNDA:42231,_ZNSt8__detail21_Hashtable_ebo_helperILi1ESt4hashIcELb1EE7_S_cgetERKS3_
FN:1108,_ZNSt8__detail21_Hashtable_ebo_helperILi0ENS_10_Select1stELb1EE6_S_getERS2_
FNDA:13514,_ZNSt8__detail21_Hashtable_ebo_helperILi0ENS_10_Select1stELb1EE6_S_getERS2_
FN:1108,_ZNSt8__detail21_Hashtable_ebo_helperILi0ESaINS_10_Hash_nodeISt4pairIKcP8TrieNodeELb0EEEELb1EE6_S_getERS9_
FNDA:41039,_ZNSt8__detail21_Hashtable_ebo_helperILi0ESaINS_10_Hash_nodeISt4pairIKcP8TrieNodeELb0EEEELb1EE6_S_getERS9_
FN:1288,_ZNKSt8__detail15_Hash_code_baseIcSt4pairIKcP8TrieNodeENS_10_Select1stESt4hashIcENS_18_Mod_range_hashingENS_20_Default_ranged_hashELb0EE12_M_hash_codeERS2_
FNDA:41882,_ZNKSt8__detail15_Hash_code_baseIcSt4pairIKcP8TrieNodeENS_10_Select1stESt4hashIcENS_18_Mod_range_hashingENS_20_Default_ranged_hashELb0EE12_M_hash_codeERS2_
FN:1296,_ZNKSt8__detail15_Hash_code_baseIcSt4pairIKcP8TrieNodeENS_10_Select1stESt4hashIcENS_18_Mod_range_hashingENS_20_Default_ranged_hashELb0EE15_M_bucket_indexERS2_mm
FNDA:55396,_ZNKSt8__detail15_Hash_code_baseIcSt4pairIKcP8TrieNodeENS_10_Select1stESt4hashIcENS_18_Mod_range_hashingENS_20_Default_ranged_hashELb0EE15_M_bucket_indexERS2_mm
FN:1300,_ZNKSt8__detail15_Hash_code_baseIcSt4pairIKcP8TrieNodeENS_10_Select1stESt4hashIcENS_18_Mod_range_hashingENS_20_Default_ranged_hashELb0EE15_M_bucket_indexEPKNS_10_Hash_nodeIS5_Lb0EEEm
FNDA:349,_ZNKSt8__detail15_Hash_code_baseIcSt4pairIKcP8TrieNodeENS_10_Select1stESt4hashIcENS_18_Mod_range_hashingENS_20_Default_ranged_hashELb0EE15_M_bucket_indexEPKNS_10_Hash_nodeIS5_Lb0EEEm
FN:1307,_ZNKSt8__detail15_Hash_code_baseIcSt4pairIKcP8TrieNodeENS_10_Select1stESt4hashIcENS_18_Mod_range_hashingENS_20_Default_ranged_hashELb0EE13_M_store_codeEPNS_10_Hash_nodeIS5_Lb0EEEm
FNDA:13761,_ZNKSt8__detail15_Hash_code_baseIcSt4pairIKcP8TrieNodeENS_10_Select1stESt4hashIcENS_18_Mod_range_hashingENS_20_Default_ranged_hashELb0EE13_M_store_codeEPNS_10_Hash_nodeIS5_Lb0EEEm
FN:1311,_ZNKSt8__detail15_Hash_code_baseIcSt4pairIKcP8TrieNodeENS_10_Select1stESt4hashIcENS_18_Mod_range_hashingENS_20_Default_ranged_hashELb0EE12_M_copy_codeEPNS_10_Hash_nodeIS5_Lb0EEEPKSD_
FNDA:0,_ZNKSt8__detail15_Hash_code_baseIcSt4pairIKcP8TrieNodeENS_10_Select1stESt4hashIcENS_18_Mod_range_hashingENS_20_Default_ranged_hashELb0EE12_M_copy_codeEPNS_10_Hash_nodeIS5_Lb0EEEPKSD_
FN:1323,_ZNKSt8__detail15_Hash_code_baseIcSt4pairIKcP8TrieNodeENS_10_Select1stESt4hashIcENS_18_Mod_range_hashingENS_20_Default_ranged_hashELb0EE10_M_extractEv
FNDA:14836,_ZNKSt8__detail15_Hash_code_baseIcSt4pairIKcP8TrieNodeENS_10_Select1stESt4hashIcENS_18_Mod_range_hashingENS_20_Default_ranged_hashELb0EE10_M_extractEv
FN:1326,_ZNSt8__detail15_Hash_code_baseIcSt4pairIKcP8TrieNodeENS_10_Select1stESt4hashIcENS_18_Mod_range_hashingENS_20_Default_ranged_hashELb0EE10_M_extractEv
FNDA:13514,_ZNSt8__detail15_Hash_code_baseIcSt4pairIKcP8TrieNodeENS_10_Select1stESt4hashIcENS_18_Mod_range_hashingENS_20_Default_ranged_hashELb0EE10_M_extractEv
FN:1329,_ZNKSt8__detail15_Hash_code_baseIcSt4pairIKcP8TrieNodeENS_10_Select1stESt4hashIcENS_18_Mod_range_hashingENS_20_Default_ranged_hashELb0EE5_M_h1Ev
FNDA:42231,_ZNKSt8__detail15_Hash_code_baseIcSt4pairIKcP8TrieNodeENS_10_Select1stESt4hashIcENS_18_Mod_range_hashingENS_20_Default_ranged_hashELb0EE5_M_h1Ev
FN:1335,_ZNKSt8__detail15_Hash_code_baseIcSt4pairIKcP8TrieNodeENS_10_Select1stESt4hashIcENS_18_Mod_range_hashingENS_20_Default_ranged_hashELb0EE5_M_h2Ev
FNDA:55745,_ZNKSt8__detail15_Hash_code_baseIcSt4pairIKcP8TrieNodeENS_10_Select1stESt4hashIcENS_18_Mod_range_hashingENS_20_Default_ranged_hashELb0EE5_M_h2Ev
FN:1459,_ZNSt8__detail13_Equal_helperIcSt4pairIKcP8TrieNodeENS_10_Select1stESt8equal_toIcEmLb0EE9_S_equalsERKS8_RKS6_RS2_mPNS_10_Hash_nodeIS5_Lb0EEE
FNDA:14487,_ZNSt8__detail13_Equal_helperIcSt4pairIKcP8TrieNodeENS_10_Select1stESt8equal_toIcEmLb0EE9_S_equalsERKS8_RKS6_RS2_mPNS_10_Hash_nodeIS5_Lb0EEE
FN:1829,_ZNKSt8__detail15_Hashtable_baseIcSt4pairIKcP8TrieNodeENS_10_Select1stESt8equal_toIcESt4hashIcENS_18_Mod_range_hashingENS_20_Default_ranged_hashENS_17_Hashtable_traitsILb0ELb0ELb1EEEE9_M_equalsERS2_mPNS_10_Hash_nodeIS5_Lb0EEE
FNDA:14487,_ZNKSt8__detail15_Hashtable_baseIcSt4pairIKcP8TrieNodeENS_10_Select1stESt8equal_toIcESt4hashIcENS_18_Mod_range_hashingENS_20_Default_ranged_hashENS_17_Hashtable_traitsILb0ELb0ELb1EEEE9_M_equalsERS2_mPNS_10_Hash_nodeIS5_Lb0EEE
FN:1846,_ZNKSt8__detail15_Hashtable_baseIcSt4pairIKcP8TrieNodeENS_10_Select1stESt8equal_toIcESt4hashIcENS_18_Mod_range_hashingENS_20_Default_ranged_hashENS_17_Hashtable_traitsILb0ELb0ELb1EEEE5_M_eqEv
FNDA:14487,_ZNKSt8__detail15_Hashtable_baseIcSt4pairIKcP8TrieNodeENS_10_Select1stESt8equal_toIcESt4hashIcENS_18_Mod_range_hashingENS_20_Default_ranged_hashENS_17_Hashtable_traitsILb0ELb0ELb1EEEE5_M_eqEv
FN:2036,_ZNSt8__detail16_Hashtable_allocISaINS_10_Hash_nodeISt4pairIKcP8TrieNodeELb0EEEEEC2Ev
FNDA:13767,_ZNSt8__detail16_Hashtable_allocISaINS_10_Hash_nodeISt4pairIKcP8TrieNodeELb0EEEEEC2Ev
FN:2041,_ZNSt8__detail16_Hashtable_allocISaINS_10_Hash_nodeISt4pairIKcP8TrieNodeELb0EEEEEC2IS8_EEOT_
FNDA:5,_ZNSt8__detail16_Hashtable_allocISaINS_10_Hash_nodeISt4pairIKcP8TrieNodeELb0EEEEEC2IS8_EEOT_
FN:2046,_ZNSt8__detail16_Hashtable_allocISaINS_10_Hash_nodeISt4pairIKcP8TrieNodeELb0EEEEE17_M_node_allocatorEv
FNDA:41039,_ZNSt8__detail16_Hashtable_allocISaINS_10_Hash_nodeISt4pairIKcP8TrieNodeELb0EEEEE17_M_node_allocatorEv
FN:2050,_ZNKSt8__detail16_Hashtable_allocISaINS_10_Hash_nodeISt4pairIKcP8TrieNodeELb0EEEEE17_M_node_allocatorEv
FNDA:5,_ZNKSt8__detail16_Hashtable_allocISaINS_10_Hash_nodeISt4pairIKcP8TrieNodeELb0EEEEE17_M_node_allocatorEv
FN:2079,_ZNSt8__detail16_Hashtable_allocISaINS_10_Hash_nodeISt4pairIKcP8TrieNodeELb0EEEEE16_M_allocate_nodeIJRKS6_EEEPS7_DpOT_
FNDA:0,_ZNSt8__detail16_Hashtable_allocISaINS_10_Hash_nodeISt4pairIKcP8TrieNodeELb0EEEEE16_M_allocate_nodeIJRKS6_EEEPS7_DpOT_
FN:2079,_ZNSt8__detail16_Hashtable_allocISaINS_10_Hash_nodeISt4pairIKcP8TrieNodeELb0EEEEE16_M_allocate_nodeIJRKSt21piecewise_construct_tSt5tupleIJRS3_EESE_IJEEEEEPS7_DpOT_
FNDA:13761,_ZNSt8__detail16_Hashtable_allocISaINS_10_Hash_nodeISt4pairIKcP8TrieNodeELb0EEEEE16_M_allocate_nodeIJRKSt21piecewise_construct_tSt5tupleIJRS3_EESE_IJEEEEEPS7_DpOT_
FN:2100,_ZNSt8__detail16_Hashtable_allocISaINS_10_Hash_nodeISt4pairIKcP8TrieNodeELb0EEEEE18_M_deallocate_nodeEPS7_
FNDA:0,_ZNSt8__detail16_Hashtable_allocISaINS_10_Hash_nodeISt4pairIKcP8TrieNodeELb0EEEEE18_M_deallocate_nodeEPS7_
FN:2108,_ZNSt8__detail16_Hashtable_allocISaINS_10_Hash_nodeISt4pairIKcP8TrieNodeELb0EEEEE22_M_deallocate_node_ptrEPS7_
FNDA:0,_ZNSt8__detail16_Hashtable_allocISaINS_10_Hash_nodeISt4pairIKcP8TrieNodeELb0EEEEE22_M_deallocate_node_ptrEPS7_
FN:2118,_ZNSt8__detail16_Hashtable_allocISaINS_10_Hash_nodeISt4pairIKcP8TrieNodeELb0EEEEE19_M_deallocate_nodesEPS7_
FNDA:8,_ZNSt8__detail16_Hashtable_allocISaINS_10_Hash_nodeISt4pairIKcP8TrieNodeELb0EEEEE19_M_deallocate_nodesEPS7_
FN:2130,_ZNSt8__detail16_Hashtable_allocISaINS_10_Hash_nodeISt4pairIKcP8TrieNodeELb0EEEEE19_M_allocate_bucketsEm
FNDA:13514,_ZNSt8__detail16_Hashtable_allocISaINS_10_Hash_nodeISt4pairIKcP8TrieNodeELb0EEEEE19_M_allocate_bucketsEm
FN:2142,_ZNSt8__detail16_Hashtable_allocISaINS_10_Hash_nodeISt4pairIKcP8TrieNodeELb0EEEEE21_M_deallocate_bucketsEPPNS_15_Hash_node_baseEm
FNDA:3,_ZNSt8__detail16_Hashtable_allocISaINS_10_Hash_nodeISt4pairIKcP8TrieNodeELb0EEEEE21_M_deallocate_bucketsEPPNS_15_Hash_node_baseEm
DA:92,349
DA:94,349
DA:92,28001
DA:94,28001
DA:218,27533
DA:236,69583
DA:237,69583
DA:240,349
DA:241,349
DA:244,42061
DA:245,42061
DA:248,349
DA:249,349
DA:282,409
DA:283,409
DA:294,41883
DA:295,41883
DA:304,14061
DA:307,14061
DA:340,41883
DA:341,41883
DA:348,13761
DA:349,13761
DA:431,55745
DA:433,55745
DA:449,13767
DA:450,13767
DA:476,13761
DA:477,13761
DA:484,0
DA:485,0
DA:689,27821
DA:694,27821
DA:695,27821
DA:696,27821
DA:697,27821
DA:699,27821
DA:701,13761
DA:704,13761
DA:707,14060
DA:1096,13767
DA:1099,5
DA:1100,5
DA:1101,5
DA:1104,14487
DA:1105,14487
DA:1104,14836
DA:1105,14836
DA:1104,55745
DA:1105,55745
DA:1104,42231
DA:1105,42231
DA:1104,5
DA:1105,5
DA:1108,13514
DA:1109,13514
DA:1108,41039
DA:1109,41039
DA:1288,41882
DA:1292,41882
DA:1296,55396
DA:1297,55396
DA:1300,349
DA:1304,349
DA:1307,13761
DA:1308,13761
DA:1311,0
DA:1312,0
DA:1323,14836
DA:1326,13514
DA:1329,42231
DA:1335,55745
DA:1459,14487
DA:1461,14487
DA:1829,14487
DA:1834,14487
DA:1835,14487
DA:1846,14487
DA:2036,13767
DA:2041,5
DA:2042,5
DA:2043,5
DA:2046,41039
DA:2047,41039
DA:2050,5
DA:2051,5
DA:2079,13761
DA:2081,13761
DA:2082,13761
DA:2085,13761
DA:2086,13761
DA:2089,13761
DA:2091,0
DA:2093,0
DA:2094,0
DA:2079,0
DA:2081,0
DA:2082,0
DA:2085,0
DA:2086,0
DA:2089,0
DA:2091,0
DA:2093,0
DA:2094,0
DA:2100,0
DA:2102,0
DA:2103,0
DA:2104,0
DA:2108,0
DA:2111,0
DA:2112,0
DA:2113,0
DA:2114,0
DA:2118,8
DA:2120,8
DA:2122,0
DA:2123,0
DA:2124,0
DA:2126,8
DA:2130,13514
DA:2132,13514
DA:2134,13514
DA:2135,13514
DA:2136,13514
DA:2137,27028
DA:2142,3
DA:2146,3
DA:2147,6
DA:2148,3
DA:2149,3
end_of_record
SF:/usr/include/c++/9/bits/stl_algobase.h
FN:198,_ZSt3minImERKT_S2_S2_
FNDA:0,_ZSt3minImERKT_S2_S2_
FN:222,_ZSt3maxImERKT_S2_S2_
FNDA:0,_ZSt3maxImERKT_S2_S2_
FN:280,_ZSt12__niter_baseIPNSt7__cxx1112basic_stringIcSt11char_traitsIcESaIcEEEET_S7_
FNDA:0,_ZSt12__niter_baseIPNSt7__cxx1112basic_stringIcSt11char_traitsIcESaIcEEEET_S7_
FN:280,_ZSt12__niter_baseIPKNSt7__cxx1112basic_stringIcSt11char_traitsIcESaIcEEEET_S8_
FNDA:0,_ZSt12__niter_baseIPKNSt7__cxx1112basic_stringIcSt11char_traitsIcESaIcEEEET_S8_
FN:295,_ZSt12__niter_wrapIPNSt7__cxx1112basic_stringIcSt11char_traitsIcESaIcEEEET_RKS7_S7_
FNDA:0,_ZSt12__niter_wrapIPNSt7__cxx1112basic_stringIcSt11char_traitsIcESaIcEEEET_RKS7_S7_
FN:337,_ZNSt11__copy_moveILb0ELb0ESt26random_access_iterator_tagE8__copy_mIPKNSt7__cxx1112basic_stringIcSt11char_traitsIcESaIcEEEPS8_EET0_T_SD_SC_
FNDA:0,_ZNSt11__copy_moveILb0ELb0ESt26random_access_iterator_tagE8__copy_mIPKNSt7__cxx1112basic_stringIcSt11char_traitsIcESaIcEEEPS8_EET0_T_SD_SC_
FN:393,_ZSt13__copy_move_aILb0EPKNSt7__cxx1112basic_stringIcSt11char_traitsIcESaIcEEEPS5_ET1_T0_SA_S9_
FNDA:0,_ZSt13__copy_move_aILb0EPKNSt7__cxx1112basic_stringIcSt11char_traitsIcESaIcEEEPS5_ET1_T0_SA_S9_
FN:438,_ZSt14__copy_move_a2ILb0EPKNSt7__cxx1112basic_stringIcSt11char_traitsIcESaIcEEEPS5_ET1_T0_SA_S9_
FNDA:0,_ZSt14__copy_move_a2ILb0EPKNSt7__cxx1112basic_stringIcSt11char_traitsIcESaIcEEEPS5_ET1_T0_SA_S9_
FN:465,_ZSt4copyIPKNSt7__cxx1112basic_stringIcSt11char_traitsIcESaIcEEEPS5_ET0_T_SA_S9_
FNDA:0,_ZSt4copyIPKNSt7__cxx1112basic_stringIcSt11char_traitsIcESaIcEEEPS5_ET0_T_SA_S9_
DA:198,0
DA:203,0
DA:204,0
DA:205,0
DA:222,0
DA:227,0
DA:228,0
DA:229,0
DA:280,0
DA:282,0
DA:280,0
DA:282,0
DA:295,0
DA:296,0
DA:337,0
DA:340,0
DA:342,0
DA:343,0
DA:344,0
DA:346,0
DA:393,0
DA:398,0
DA:404,0
DA:438,0
DA:440,0
DA:443,0
DA:465,0
DA:474,0
end_of_record
SF:/usr/include/c++/9/bits/cpp_type_traits.h
FN:428,_ZSt12__miter_baseIPKNSt7__cxx1112basic_stringIcSt11char_traitsIcESaIcEEEET_S8_
FNDA:0,_ZSt12__miter_baseIPKNSt7__cxx1112basic_stringIcSt11char_traitsIcESaIcEEEET_S8_
DA:428,0
DA:429,0
end_of_record
SF:/usr/include/c++/9/bits/hashtable.h
FN:342,_ZNKSt10_HashtableIcSt4pairIKcP8TrieNodeESaIS4_ENSt8__detail10_Select1stESt8equal_toIcESt4hashIcENS6_18_Mod_range_hashingENS6_20_Default_ranged_hashENS6_20_Prime_rehash_policyENS6_17_Hashtable_traitsILb0ELb0ELb1EEEE21_M_uses_single_bucketEPPNS6_15_Hash_node_baseE
FNDA:13522,_ZNKSt10_HashtableIcSt4pairIKcP8TrieNodeESaIS4_ENSt8__detail10_Select1stESt8equal_toIcESt4hashIcENS6_18_Mod_range_hashingENS6_20_Default_ranged_hashENS6_20_Prime_rehash_policyENS6_17_Hashtable_traitsILb0ELb0ELb1EEEE21_M_uses_single_bucketEPPNS6_15_Hash_node_baseE
FN:353,_ZNSt10_HashtableIcSt4pairIKcP8TrieNodeESaIS4_ENSt8__detail10_Select1stESt8equal_toIcESt4hashIcENS6_18_Mod_range_hashingENS6_20_Default_ranged_hashENS6_20_Prime_rehash_policyENS6_17_Hashtable_traitsILb0ELb0ELb1EEEE19_M_allocate_bucketsEm
FNDA:13519,_ZNSt10_HashtableIcSt4pairIKcP8TrieNodeESaIS4_ENSt8__detail10_Select1stESt8equal_toIcESt4hashIcENS6_18_Mod_range_hashingENS6_20_Default_ranged_hashENS6_20_Prime_rehash_policyENS6_17_Hashtable_traitsILb0ELb0ELb1EEEE19_M_allocate_bucketsEm
FN:365,_ZNSt10_HashtableIcSt4pairIKcP8TrieNodeESaIS4_ENSt8__detail10_Select1stESt8equal_toIcESt4hashIcENS6_18_Mod_range_hashingENS6_20_Default_ranged_hashENS6_20_Prime_rehash_policyENS6_17_Hashtable_traitsILb0ELb0ELb1EEEE21_M_deallocate_bucketsEPPNS6_15_Hash_node_baseEm
FNDA:13522,_ZNSt10_HashtableIcSt4pairIKcP8TrieNodeESaIS4_ENSt8__detail10_Select1stESt8equal_toIcESt4hashIcENS6_18_Mod_range_hashingENS6_20_Default_ranged_hashENS6_20_Prime_rehash_policyENS6_17_Hashtable_traitsILb0ELb0ELb1EEEE21_M_deallocate_bucketsEPPNS6_15_Hash_node_baseEm
FN:374,_ZNSt10_HashtableIcSt4pairIKcP8TrieNodeESaIS4_ENSt8__detail10_Select1stESt8equal_toIcESt4hashIcENS6_18_Mod_range_hashingENS6_20_Default_ranged_hashENS6_20_Prime_rehash_policyENS6_17_Hashtable_traitsILb0ELb0ELb1EEEE21_M_deallocate_bucketsEv
FNDA:13522,_ZNSt10_HashtableIcSt4pairIKcP8TrieNodeESaIS4_ENSt8__detail10_Select1stESt8equal_toIcESt4hashIcENS6_18_Mod_range_hashingENS6_20_Default_ranged_hashENS6_20_Prime_rehash_policyENS6_17_Hashtable_traitsILb0ELb0ELb1EEEE21_M_deallocate_bucketsEv
FN:383,_ZNKSt10_HashtableIcSt4pairIKcP8TrieNodeESaIS4_ENSt8__detail10_Select1stESt8equal_toIcESt4hashIcENS6_18_Mod_range_hashingENS6_20_Default_ranged_hashENS6_20_Prime_rehash_policyENS6_17_Hashtable_traitsILb0ELb0ELb1EEEE8_M_beginEv
FNDA:13522,_ZNKSt10_HashtableIcSt4pairIKcP8TrieNodeESaIS4_ENSt8__detail10_Select1stESt8equal_toIcESt4hashIcENS6_18_Mod_range_hashingENS6_20_Default_ranged_hashENS6_20_Prime_rehash_policyENS6_17_Hashtable_traitsILb0ELb0ELb1EEEE8_M_beginEv
FN:438,_ZNSt10_HashtableIcSt4pairIKcP8TrieNodeESaIS4_ENSt8__detail10_Select1stESt8equal_toIcESt4hashIcENS6_18_Mod_range_hashingENS6_20_Default_ranged_hashENS6_20_Prime_rehash_policyENS6_17_Hashtable_traitsILb0ELb0ELb1EEEEC2Ev
FNDA:13767,_ZNSt10_HashtableIcSt4pairIKcP8TrieNodeESaIS4_ENSt8__detail10_Select1stESt8equal_toIcESt4hashIcENS6_18_Mod_range_hashingENS6_20_Default_ranged_hashENS6_20_Prime_rehash_policyENS6_17_Hashtable_traitsILb0ELb0ELb1EEEEC2Ev
FN:544,_ZNSt10_HashtableIcSt4pairIKcP8TrieNodeESaIS4_ENSt8__detail10_Select1stESt8equal_toIcESt4hashIcENS6_18_Mod_range_hashingENS6_20_Default_ranged_hashENS6_20_Prime_rehash_policyENS6_17_Hashtable_traitsILb0ELb0ELb1EEEE3endEv
FNDA:27823,_ZNSt10_HashtableIcSt4pairIKcP8TrieNodeESaIS4_ENSt8__detail10_Select1stESt8equal_toIcESt4hashIcENS6_18_Mod_range_hashingENS6_20_Default_ranged_hashENS6_20_Prime_rehash_policyENS6_17_Hashtable_traitsILb0ELb0ELb1EEEE3endEv
FN:671,_ZNKSt10_HashtableIcSt4pairIKcP8TrieNodeESaIS4_ENSt8__detail10_Select1stESt8equal_toIcESt4hashIcENS6_18_Mod_range_hashingENS6_20_Default_ranged_hashENS6_20_Prime_rehash_policyENS6_17_Hashtable_traitsILb0ELb0ELb1EEEE15_M_bucket_indexEPNS6_10_Hash_nodeIS4_Lb0EEE
FNDA:310,_ZNKSt10_HashtableIcSt4pairIKcP8TrieNodeESaIS4_ENSt8__detail10_Select1stESt8equal_toIcESt4hashIcENS6_18_Mod_range_hashingENS6_20_Default_ranged_hashENS6_20_Prime_rehash_policyENS6_17_Hashtable_traitsILb0ELb0ELb1EEEE15_M_bucket_indexEPNS6_10_Hash_nodeIS4_Lb0EEE
FN:675,_ZNKSt10_HashtableIcSt4pairIKcP8TrieNodeESaIS4_ENSt8__detail10_Select1stESt8equal_toIcESt4hashIcENS6_18_Mod_range_hashingENS6_20_Default_ranged_hashENS6_20_Prime_rehash_policyENS6_17_Hashtable_traitsILb0ELb0ELb1EEEE15_M_bucket_indexERS1_m
FNDA:55396,_ZNKSt10_HashtableIcSt4pairIKcP8TrieNodeESaIS4_ENSt8__detail10_Select1stESt8equal_toIcESt4hashIcENS6_18_Mod_range_hashingENS6_20_Default_ranged_hashENS6_20_Prime_rehash_policyENS6_17_Hashtable_traitsILb0ELb0ELb1EEEE15_M_bucket_indexERS1_m
FN:684,_ZNKSt10_HashtableIcSt4pairIKcP8TrieNodeESaIS4_ENSt8__detail10_Select1stESt8equal_toIcESt4hashIcENS6_18_Mod_range_hashingENS6_20_Default_ranged_hashENS6_20_Prime_rehash_policyENS6_17_Hashtable_traitsILb0ELb0ELb1EEEE12_M_find_nodeEmRS1_m
FNDA:41882,_ZNKSt10_HashtableIcSt4pairIKcP8TrieNodeESaIS4_ENSt8__detail10_Select1stESt8equal_toIcESt4hashIcENS6_18_Mod_range_hashingENS6_20_Default_ranged_hashENS6_20_Prime_rehash_policyENS6_17_Hashtable_traitsILb0ELb0ELb1EEEE12_M_find_nodeEmRS1_m
FN:1143,_ZNSt10_HashtableIcSt4pairIKcP8TrieNodeESaIS4_ENSt8__detail10_Select1stESt8equal_toIcESt4hashIcENS6_18_Mod_range_hashingENS6_20_Default_ranged_hashENS6_20_Prime_rehash_policyENS6_17_Hashtable_traitsILb0ELb0ELb1EEEE9_M_assignIZNSH_C4ERKSH_EUlPKNS6_10_Hash_nodeIS4_Lb0EEEE_EEvSK_RKT_
FNDA:5,_ZNSt10_HashtableIcSt4pairIKcP8TrieNodeESaIS4_ENSt8__detail10_Select1stESt8equal_toIcESt4hashIcENS6_18_Mod_range_hashingENS6_20_Default_ranged_hashENS6_20_Prime_rehash_policyENS6_17_Hashtable_traitsILb0ELb0ELb1EEEE9_M_assignIZNSH_C4ERKSH_EUlPKNS6_10_Hash_nodeIS4_Lb0EEEE_EEvSK_RKT_
FN:1260,_ZNSt10_HashtableIcSt4pairIKcP8TrieNodeESaIS4_ENSt8__detail10_Select1stESt8equal_toIcESt4hashIcENS6_18_Mod_range_hashingENS6_20_Default_ranged_hashENS6_20_Prime_rehash_policyENS6_17_Hashtable_traitsILb0ELb0ELb1EEEEC2ERKSH_
FNDA:5,_ZNSt10_HashtableIcSt4pairIKcP8TrieNodeESaIS4_ENSt8__detail10_Select1stESt8equal_toIcESt4hashIcENS6_18_Mod_range_hashingENS6_20_Default_ranged_hashENS6_20_Prime_rehash_policyENS6_17_Hashtable_traitsILb0ELb0ELb1EEEEC2ERKSH_
FN:1274,_ZZNSt10_HashtableIcSt4pairIKcP8TrieNodeESaIS4_ENSt8__detail10_Select1stESt8equal_toIcESt4hashIcENS6_18_Mod_range_hashingENS6_20_Default_ranged_hashENS6_20_Prime_rehash_policyENS6_17_Hashtable_traitsILb0ELb0ELb1EEEEC4ERKSH_ENKUlPKNS6_10_Hash_nodeIS4_Lb0EEEE_clESN_
FNDA:0,_ZZNSt10_HashtableIcSt4pairIKcP8TrieNodeESaIS4_ENSt8__detail10_Select1stESt8equal_toIcESt4hashIcENS6_18_Mod_range_hashingENS6_20_Default_ranged_hashENS6_20_Prime_rehash_policyENS6_17_Hashtable_traitsILb0ELb0ELb1EEEEC4ERKSH_ENKUlPKNS6_10_Hash_nodeIS4_Lb0EEEE_clESN_
FN:1383,_ZNSt10_HashtableIcSt4pairIKcP8TrieNodeESaIS4_ENSt8__detail10_Select1stESt8equal_toIcESt4hashIcENS6_18_Mod_range_hashingENS6_20_Default_ranged_hashENS6_20_Prime_rehash_policyENS6_17_Hashtable_traitsILb0ELb0ELb1EEEED2Ev
FNDA:8,_ZNSt10_HashtableIcSt4pairIKcP8TrieNodeESaIS4_ENSt8__detail10_Select1stESt8equal_toIcESt4hashIcENS6_18_Mod_range_hashingENS6_20_Default_ranged_hashENS6_20_Prime_rehash_policyENS6_17_Hashtable_traitsILb0ELb0ELb1EEEED2Ev
FN:1447,_ZNSt10_HashtableIcSt4pairIKcP8TrieNodeESaIS4_ENSt8__detail10_Select1stESt8equal_toIcESt4hashIcENS6_18_Mod_range_hashingENS6_20_Default_ranged_hashENS6_20_Prime_rehash_policyENS6_17_Hashtable_traitsILb0ELb0ELb1EEEE4findERS1_
FNDA:14061,_ZNSt10_HashtableIcSt4pairIKcP8TrieNodeESaIS4_ENSt8__detail10_Select1stESt8equal_toIcESt4hashIcENS6_18_Mod_range_hashingENS6_20_Default_ranged_hashENS6_20_Prime_rehash_policyENS6_17_Hashtable_traitsILb0ELb0ELb1EEEE4findERS1_
FN:1567,_ZNKSt10_HashtableIcSt4pairIKcP8TrieNodeESaIS4_ENSt8__detail10_Select1stESt8equal_toIcESt4hashIcENS6_18_Mod_range_hashingENS6_20_Default_ranged_hashENS6_20_Prime_rehash_policyENS6_17_Hashtable_traitsILb0ELb0ELb1EEEE19_M_find_before_nodeEmRS1_m
FNDA:41882,_ZNKSt10_HashtableIcSt4pairIKcP8TrieNodeESaIS4_ENSt8__detail10_Select1stESt8equal_toIcESt4hashIcENS6_18_Mod_range_hashingENS6_20_Default_ranged_hashENS6_20_Prime_rehash_policyENS6_17_Hashtable_traitsILb0ELb0ELb1EEEE19_M_find_before_nodeEmRS1_m
FN:1595,_ZNSt10_HashtableIcSt4pairIKcP8TrieNodeESaIS4_ENSt8__detail10_Select1stESt8equal_toIcESt4hashIcENS6_18_Mod_range_hashingENS6_20_Default_ranged_hashENS6_20_Prime_rehash_policyENS6_17_Hashtable_traitsILb0ELb0ELb1EEEE22_M_insert_bucket_beginEmPNS6_10_Hash_nodeIS4_Lb0EEE
FNDA:13761,_ZNSt10_HashtableIcSt4pairIKcP8TrieNodeESaIS4_ENSt8__detail10_Select1stESt8equal_toIcESt4hashIcENS6_18_Mod_range_hashingENS6_20_Default_ranged_hashENS6_20_Prime_rehash_policyENS6_17_Hashtable_traitsILb0ELb0ELb1EEEE22_M_insert_bucket_beginEmPNS6_10_Hash_nodeIS4_Lb0EEE
FN:1733,_ZNSt10_HashtableIcSt4pairIKcP8TrieNodeESaIS4_ENSt8__detail10_Select1stESt8equal_toIcESt4hashIcENS6_18_Mod_range_hashingENS6_20_Default_ranged_hashENS6_20_Prime_rehash_policyENS6_17_Hashtable_traitsILb0ELb0ELb1EEEE21_M_insert_unique_nodeEmmPNS6_10_Hash_nodeIS4_Lb0EEEm
FNDA:13761,_ZNSt10_HashtableIcSt4pairIKcP8TrieNodeESaIS4_ENSt8__detail10_Select1stESt8equal_toIcESt4hashIcENS6_18_Mod_range_hashingENS6_20_Default_ranged_hashENS6_20_Prime_rehash_policyENS6_17_Hashtable_traitsILb0ELb0ELb1EEEE21_M_insert_unique_nodeEmmPNS6_10_Hash_nodeIS4_Lb0EEEm
FN:2059,_ZNSt10_HashtableIcSt4pairIKcP8TrieNodeESaIS4_ENSt8__detail10_Select1stESt8equal_toIcESt4hashIcENS6_18_Mod_range_hashingENS6_20_Default_ranged_hashENS6_20_Prime_rehash_policyENS6_17_Hashtable_traitsILb0ELb0ELb1EEEE5clearEv
FNDA:8,_ZNSt10_HashtableIcSt4pairIKcP8TrieNodeESaIS4_ENSt8__detail10_Select1stESt8equal_toIcESt4hashIcENS6_18_Mod_range_hashingENS6_20_Default_ranged_hashENS6_20_Prime_rehash_policyENS6_17_Hashtable_traitsILb0ELb0ELb1EEEE5clearEv
FN:2096,_ZNSt10_HashtableIcSt4pairIKcP8TrieNodeESaIS4_ENSt8__detail10_Select1stESt8equal_toIcESt4hashIcENS6_18_Mod_range_hashingENS6_20_Default_ranged_hashENS6_20_Prime_rehash_policyENS6_17_Hashtable_traitsILb0ELb0ELb1EEEE9_M_rehashEmRKm
FNDA:13514,_ZNSt10_HashtableIcSt4pairIKcP8TrieNodeESaIS4_ENSt8__detail10_Select1stESt8equal_toIcESt4hashIcENS6_18_Mod_range_hashingENS6_20_Default_ranged_hashENS6_20_Prime_rehash_policyENS6_17_Hashtable_traitsILb0ELb0ELb1EEEE9_M_rehashEmRKm
FN:2119,_ZNSt10_HashtableIcSt4pairIKcP8TrieNodeESaIS4_ENSt8__detail10_Select1stESt8equal_toIcESt4hashIcENS6_18_Mod_range_hashingENS6_20_Default_ranged_hashENS6_20_Prime_rehash_policyENS6_17_Hashtable_traitsILb0ELb0ELb1EEEE13_M_rehash_auxEmSt17integral_constantIbLb1EE
FNDA:13514,_ZNSt10_HashtableIcSt4pairIKcP8TrieNodeESaIS4_ENSt8__detail10_Select1stESt8equal_toIcESt4hashIcENS6_18_Mod_range_hashingENS6_20_Default_ranged_hashENS6_20_Prime_rehash_policyENS6_17_Hashtable_traitsILb0ELb0ELb1EEEE13_M_rehash_auxEmSt17integral_constantIbLb1EE
DA:342,13522
DA:343,13522
DA:353,13519
DA:355,13519
DA:357,5
DA:358,5
DA:361,13514
DA:365,13522
DA:367,13522
DA:368,13519
DA:370,3
DA:374,13522
DA:375,13522
DA:383,13522
DA:384,13522
DA:438,13767
DA:544,27823
DA:545,27823
DA:671,310
DA:672,310
DA:675,55396
DA:676,55396
DA:684,41882
DA:687,41882
DA:688,41882
DA:689,14359
DA:690,27523
DA:1143,5
DA:1147,5
DA:1148,5
DA:1149,5
DA:1153,5
DA:1154,5
DA:1158,0
DA:1159,0
DA:1160,0
DA:1161,0
DA:1162,0
DA:1165,0
DA:1166,0
DA:1168,0
DA:1169,0
DA:1170,0
DA:1171,0
DA:1172,0
DA:1173,0
DA:1174,0
DA:1177,0
DA:1179,0
DA:1180,0
DA:1181,0
DA:1182,0
DA:1260,5
DA:1267,5
DA:1269,5
DA:1270,5
DA:1271,5
DA:1273,5
DA:1274,0
DA:1275,0
DA:1276,5
DA:1383,8
DA:1387,8
DA:1388,8
DA:1389,8
DA:1447,14061
DA:1452,14061
DA:1453,14061
DA:1454,14061
DA:1455,14061
DA:1567,41882
DA:1573,41882
DA:1574,41882
DA:1575,27455
DA:1577,14427
DA:1578,60
DA:1580,14487
DA:1581,14359
DA:1583,128
DA:1584,68
DA:1585,60
DA:1587,68
DA:1595,13761
DA:1599,13761
DA:1603,32
DA:1604,32
DA:1611,13729
DA:1612,13729
DA:1613,13729
DA:1616,218
DA:1617,13729
DA:1619,13761
DA:1733,13761
DA:1739,13761
DA:1740,13761
DA:1746,13761
DA:1748,13514
DA:1749,13514
DA:1752,13761
DA:1755,13761
DA:1756,13761
DA:1757,13761
DA:1759,0
DA:1761,0
DA:1762,0
DA:2059,8
DA:2063,8
DA:2064,8
DA:2065,8
DA:2066,8
DA:2067,8
DA:2096,13514
DA:2102,13514
DA:2104,0
DA:2108,0
DA:2109,0
DA:2111,13514
DA:2119,13514
DA:2123,13514
DA:2124,13514
DA:2125,13514
DA:2126,13514
DA:2127,13553
DA:2129,39
DA:2130,39
DA:2131,39
DA:2133,38
DA:2134,38
DA:2135,38
DA:2136,38
DA:2137,35
DA:2138,38
DA:2142,1
DA:2143,1
DA:2145,39
DA:2148,13514
DA:2149,13514
DA:2150,13514
DA:2151,13514
end_of_record
SF:/mnt/c/users/elsar/dev/tiralabra/patternmatching/includes/helperfunctions.cpp
FN:20,_Z9APIhelperNSt7__cxx1112basic_stringIcSt11char_traitsIcESaIcEEES4_
FNDA:0,_Z9APIhelperNSt7__cxx1112basic_stringIcSt11char_traitsIcESaIcEEES4_
FN:33,_Z21suffixInsertionHelper8TrieNodeNSt7__cxx1112basic_stringIcSt11char_traitsIcESaIcEEERPS_
FNDA:2,_Z21suffixInsertionHelper8TrieNodeNSt7__cxx1112basic_stringIcSt11char_traitsIcESaIcEEERPS_
FN:47,_Z19wordInsertionHelper8TrieNodeNSt7__cxx1112basic_stringIcSt11char_traitsIcESaIcEEERPS_
FNDA:1,_Z19wordInsertionHelper8TrieNodeNSt7__cxx1112basic_stringIcSt11char_traitsIcESaIcEEERPS_
FN:71,_Z21subStringSearchHelper8TrieNodeNSt7__cxx1112basic_stringIcSt11char_traitsIcESaIcEEERPS_S5_
FNDA:2,_Z21subStringSearchHelper8TrieNodeNSt7__cxx1112basic_stringIcSt11char_traitsIcESaIcEEERPS_S5_
FN:84,_Z18autoCompleteHelper8TrieNodeNSt7__cxx1112basic_stringIcSt11char_traitsIcESaIcEEERPS_S5_
FNDA:0,_Z18autoCompleteHelper8TrieNodeNSt7__cxx1112basic_stringIcSt11char_traitsIcESaIcEEERPS_S5_
DA:20,0
DA:22,0
DA:23,0
DA:24,0
DA:25,0
DA:33,2
DA:35,237
DA:37,235
DA:39,2
DA:47,1
DA:49,1
DA:50,1
DA:51,117
DA:53,116
DA:55,19
DA:56,19
DA:57,19
DA:61,97
DA:64,2
DA:71,2
DA:73,2
DA:74,2
DA:75,2
DA:76,2
DA:77,2
DA:84,0
DA:86,0
DA:87,0
DA:88,0
DA:89,0
DA:90,0
DA:92,0
DA:94,0
DA:98,0
DA:100,0
end_of_record
SF:/usr/include/gtest/internal/gtest-port.h
FN:957,_ZN7testing8internal8GTestLog9GetStreamEv
FNDA:0,_ZN7testing8internal8GTestLog9GetStreamEv
DA:957,0
end_of_record
SF:/usr/include/c++/9/ext/aligned_buffer.h
FN:102,_ZN9__gnu_cxx16__aligned_bufferISt4pairIKcP8TrieNodeEE7_M_addrEv
FNDA:69583,_ZN9__gnu_cxx16__aligned_bufferISt4pairIKcP8TrieNodeEE7_M_addrEv
FN:108,_ZNK9__gnu_cxx16__aligned_bufferISt4pairIKcP8TrieNodeEE7_M_addrEv
FNDA:349,_ZNK9__gnu_cxx16__aligned_bufferISt4pairIKcP8TrieNodeEE7_M_addrEv
FN:114,_ZN9__gnu_cxx16__aligned_bufferISt4pairIKcP8TrieNodeEE6_M_ptrEv
FNDA:69583,_ZN9__gnu_cxx16__aligned_bufferISt4pairIKcP8TrieNodeEE6_M_ptrEv
FN:118,_ZNK9__gnu_cxx16__aligned_bufferISt4pairIKcP8TrieNodeEE6_M_ptrEv
FNDA:349,_ZNK9__gnu_cxx16__aligned_bufferISt4pairIKcP8TrieNodeEE6_M_ptrEv
DA:102,69583
DA:104,69583
DA:108,349
DA:110,349
DA:114,69583
DA:115,69583
DA:118,349
DA:119,349
end_of_record
SF:/usr/include/c++/9/bits/unique_ptr.h
FN:75,_ZNKSt14default_deleteINSt7__cxx1112basic_stringIcSt11char_traitsIcESaIcEEEEclEPS5_
FNDA:0,_ZNKSt14default_deleteINSt7__cxx1112basic_stringIcSt11char_traitsIcESaIcEEEEclEPS5_
FN:75,_ZNKSt14default_deleteINSt7__cxx1118basic_stringstreamIcSt11char_traitsIcESaIcEEEEclEPS5_
FNDA:0,_ZNKSt14default_deleteINSt7__cxx1118basic_stringstreamIcSt11char_traitsIcESaIcEEEEclEPS5_
FN:153,_ZNSt15__uniq_ptr_implINSt7__cxx1112basic_stringIcSt11char_traitsIcESaIcEEESt14default_deleteIS5_EE6_M_ptrEv
FNDA:5,_ZNSt15__uniq_ptr_implINSt7__cxx1112basic_stringIcSt11char_traitsIcESaIcEEESt14default_deleteIS5_EE6_M_ptrEv
FN:153,_ZNSt15__uniq_ptr_implINSt7__cxx1118basic_stringstreamIcSt11char_traitsIcESaIcEEESt14default_deleteIS5_EE6_M_ptrEv
FNDA:0,_ZNSt15__uniq_ptr_implINSt7__cxx1118basic_stringstreamIcSt11char_traitsIcESaIcEEESt14default_deleteIS5_EE6_M_ptrEv
FN:154,_ZNKSt15__uniq_ptr_implINSt7__cxx1112basic_stringIcSt11char_traitsIcESaIcEEESt14default_deleteIS5_EE6_M_ptrEv
FNDA:0,_ZNKSt15__uniq_ptr_implINSt7__cxx1112basic_stringIcSt11char_traitsIcESaIcEEESt14default_deleteIS5_EE6_M_ptrEv
FN:155,_ZNSt15__uniq_ptr_implINSt7__cxx1112basic_stringIcSt11char_traitsIcESaIcEEESt14default_deleteIS5_EE10_M_deleterEv
FNDA:0,_ZNSt15__uniq_ptr_implINSt7__cxx1112basic_stringIcSt11char_traitsIcESaIcEEESt14default_deleteIS5_EE10_M_deleterEv
FN:155,_ZNSt15__uniq_ptr_implINSt7__cxx1118basic_stringstreamIcSt11char_traitsIcESaIcEEESt14default_deleteIS5_EE10_M_deleterEv
FNDA:0,_ZNSt15__uniq_ptr_implINSt7__cxx1118basic_stringstreamIcSt11char_traitsIcESaIcEEESt14default_deleteIS5_EE10_M_deleterEv
FN:286,_ZNSt10unique_ptrINSt7__cxx1112basic_stringIcSt11char_traitsIcESaIcEEESt14default_deleteIS5_EED2Ev
FNDA:5,_ZNSt10unique_ptrINSt7__cxx1112basic_stringIcSt11char_traitsIcESaIcEEESt14default_deleteIS5_EED2Ev
FN:286,_ZNSt10unique_ptrINSt7__cxx1118basic_stringstreamIcSt11char_traitsIcESaIcEEESt14default_deleteIS5_EED2Ev
FNDA:0,_ZNSt10unique_ptrINSt7__cxx1118basic_stringstreamIcSt11char_traitsIcESaIcEEESt14default_deleteIS5_EED2Ev
FN:352,_ZNKSt10unique_ptrINSt7__cxx1112basic_stringIcSt11char_traitsIcESaIcEEESt14default_deleteIS5_EEptEv
FNDA:0,_ZNKSt10unique_ptrINSt7__cxx1112basic_stringIcSt11char_traitsIcESaIcEEESt14default_deleteIS5_EEptEv
FN:360,_ZNKSt10unique_ptrINSt7__cxx1112basic_stringIcSt11char_traitsIcESaIcEEESt14default_deleteIS5_EE3getEv
FNDA:0,_ZNKSt10unique_ptrINSt7__cxx1112basic_stringIcSt11char_traitsIcESaIcEEESt14default_deleteIS5_EE3getEv
FN:365,_ZNSt10unique_ptrINSt7__cxx1112basic_stringIcSt11char_traitsIcESaIcEEESt14default_deleteIS5_EE11get_deleterEv
FNDA:0,_ZNSt10unique_ptrINSt7__cxx1112basic_stringIcSt11char_traitsIcESaIcEEESt14default_deleteIS5_EE11get_deleterEv
FN:365,_ZNSt10unique_ptrINSt7__cxx1118basic_stringstreamIcSt11char_traitsIcESaIcEEESt14default_deleteIS5_EE11get_deleterEv
FNDA:0,_ZNSt10unique_ptrINSt7__cxx1118basic_stringstreamIcSt11char_traitsIcESaIcEEESt14default_deleteIS5_EE11get_deleterEv
DA:75,0
DA:81,0
DA:82,0
DA:75,0
DA:81,0
DA:82,0
DA:153,5
DA:153,0
DA:154,0
DA:155,0
DA:155,0
DA:286,5
DA:290,5
DA:291,5
DA:292,0
DA:293,5
DA:294,5
DA:286,0
DA:290,0
DA:291,0
DA:292,0
DA:293,0
DA:294,0
DA:352,0
DA:355,0
DA:360,0
DA:361,0
DA:365,0
DA:366,0
DA:365,0
DA:366,0
end_of_record
SF:/usr/include/c++/9/bits/stl_iterator_base_funcs.h
FN:98,_ZSt10__distanceIPcENSt15iterator_traitsIT_E15difference_typeES2_S2_St26random_access_iterator_tag
FNDA:0,_ZSt10__distanceIPcENSt15iterator_traitsIT_E15difference_typeES2_S2_St26random_access_iterator_tag
FN:98,_ZSt10__distanceIPKcENSt15iterator_traitsIT_E15difference_typeES3_S3_St26random_access_iterator_tag
FNDA:0,_ZSt10__distanceIPKcENSt15iterator_traitsIT_E15difference_typeES3_S3_St26random_access_iterator_tag
FN:98,_ZSt10__distanceIPKNSt7__cxx1112basic_stringIcSt11char_traitsIcESaIcEEEENSt15iterator_traitsIT_E15difference_typeES9_S9_St26random_access_iterator_tag
FNDA:0,_ZSt10__distanceIPKNSt7__cxx1112basic_stringIcSt11char_traitsIcESaIcEEEENSt15iterator_traitsIT_E15difference_typeES9_S9_St26random_access_iterator_tag
FN:138,_ZSt8distanceIPcENSt15iterator_traitsIT_E15difference_typeES2_S2_
FNDA:0,_ZSt8distanceIPcENSt15iterator_traitsIT_E15difference_typeES2_S2_
FN:138,_ZSt8distanceIPKcENSt15iterator_traitsIT_E15difference_typeES3_S3_
FNDA:0,_ZSt8distanceIPKcENSt15iterator_traitsIT_E15difference_typeES3_S3_
FN:138,_ZSt8distanceIPKNSt7__cxx1112basic_stringIcSt11char_traitsIcESaIcEEEENSt15iterator_traitsIT_E15difference_typeES9_S9_
FNDA:0,_ZSt8distanceIPKNSt7__cxx1112basic_stringIcSt11char_traitsIcESaIcEEEENSt15iterator_traitsIT_E15difference_typeES9_S9_
FN:174,_ZSt9__advanceIPKNSt7__cxx1112basic_stringIcSt11char_traitsIcESaIcEEElEvRT_T0_St26random_access_iterator_tag
FNDA:0,_ZSt9__advanceIPKNSt7__cxx1112basic_stringIcSt11char_traitsIcESaIcEEElEvRT_T0_St26random_access_iterator_tag
FN:202,_ZSt7advanceIPKNSt7__cxx1112basic_stringIcSt11char_traitsIcESaIcEEEmEvRT_T0_
FNDA:0,_ZSt7advanceIPKNSt7__cxx1112basic_stringIcSt11char_traitsIcESaIcEEEmEvRT_T0_
DA:98,0
DA:104,0
DA:98,0
DA:104,0
DA:98,0
DA:104,0
DA:138,0
DA:141,0
DA:142,0
DA:138,0
DA:141,0
DA:142,0
DA:138,0
DA:141,0
DA:142,0
DA:174,0
DA:185,0
DA:186,0
DA:202,0
DA:205,0
DA:206,0
DA:207,0
end_of_record
SF:/usr/include/c++/9/bits/alloc_traits.h
FN:442,_ZNSt16allocator_traitsISaIPNSt8__detail15_Hash_node_baseEEE8allocateERS3_m
FNDA:13514,_ZNSt16allocator_traitsISaIPNSt8__detail15_Hash_node_baseEEE8allocateERS3_m
FN:442,_ZNSt16allocator_traitsISaINSt8__detail10_Hash_nodeISt4pairIKcP8TrieNodeELb0EEEEE8allocateERS8_m
FNDA:13761,_ZNSt16allocator_traitsISaINSt8__detail10_Hash_nodeISt4pairIKcP8TrieNodeELb0EEEEE8allocateERS8_m
FN:442,_ZNSt16allocator_traitsISaINSt7__cxx1112basic_stringIcSt11char_traitsIcESaIcEEEEE8allocateERS6_m
FNDA:0,_ZNSt16allocator_traitsISaINSt7__cxx1112basic_stringIcSt11char_traitsIcESaIcEEEEE8allocateERS6_m
FN:468,_ZNSt16allocator_traitsISaIN4Json6Reader9ErrorInfoEEE10deallocateERS3_PS2_m
FNDA:0,_ZNSt16allocator_traitsISaIN4Json6Reader9ErrorInfoEEE10deallocateERS3_PS2_m
FN:468,_ZNSt16allocator_traitsISaIPN4Json5ValueEEE10deallocateERS3_PS2_m
FNDA:0,_ZNSt16allocator_traitsISaIPN4Json5ValueEEE10deallocateERS3_PS2_m
FN:468,_ZNSt16allocator_traitsISaIPNSt8__detail15_Hash_node_baseEEE10deallocateERS3_PS2_m
FNDA:3,_ZNSt16allocator_traitsISaIPNSt8__detail15_Hash_node_baseEEE10deallocateERS3_PS2_m
FN:468,_ZNSt16allocator_traitsISaINSt7__cxx1112basic_stringIcSt11char_traitsIcESaIcEEEEE10deallocateERS6_PS5_m
FNDA:1,_ZNSt16allocator_traitsISaINSt7__cxx1112basic_stringIcSt11char_traitsIcESaIcEEEEE10deallocateERS6_PS5_m
FN:468,_ZNSt16allocator_traitsISaIPN4Json6Reader9ErrorInfoEEE10deallocateERS4_PS3_m
FNDA:0,_ZNSt16allocator_traitsISaIPN4Json6Reader9ErrorInfoEEE10deallocateERS4_PS3_m
FN:468,_ZNSt16allocator_traitsISaIPPN4Json5ValueEEE10deallocateERS4_PS3_m
FNDA:0,_ZNSt16allocator_traitsISaIPPN4Json5ValueEEE10deallocateERS4_PS3_m
FN:468,_ZNSt16allocator_traitsISaINSt8__detail10_Hash_nodeISt4pairIKcP8TrieNodeELb0EEEEE10deallocateERS8_PS7_m
FNDA:0,_ZNSt16allocator_traitsISaINSt8__detail10_Hash_nodeISt4pairIKcP8TrieNodeELb0EEEEE10deallocateERS8_PS7_m
FN:481,_ZNSt16allocator_traitsISaINSt7__cxx1112basic_stringIcSt11char_traitsIcESaIcEEEEE9constructIS5_JRKS5_EEEvRS6_PT_DpOT0_
FNDA:0,_ZNSt16allocator_traitsISaINSt7__cxx1112basic_stringIcSt11char_traitsIcESaIcEEEEE9constructIS5_JRKS5_EEEvRS6_PT_DpOT0_
FN:481,_ZNSt16allocator_traitsISaINSt7__cxx1112basic_stringIcSt11char_traitsIcESaIcEEEEE9constructIS5_JS5_EEEvRS6_PT_DpOT0_
FNDA:0,_ZNSt16allocator_traitsISaINSt7__cxx1112basic_stringIcSt11char_traitsIcESaIcEEEEE9constructIS5_JS5_EEEvRS6_PT_DpOT0_
FN:481,_ZNSt16allocator_traitsISaINSt8__detail10_Hash_nodeISt4pairIKcP8TrieNodeELb0EEEEE9constructIS6_JRKS6_EEEvRS8_PT_DpOT0_
FNDA:0,_ZNSt16allocator_traitsISaINSt8__detail10_Hash_nodeISt4pairIKcP8TrieNodeELb0EEEEE9constructIS6_JRKS6_EEEvRS8_PT_DpOT0_
FN:481,_ZNSt16allocator_traitsISaINSt8__detail10_Hash_nodeISt4pairIKcP8TrieNodeELb0EEEEE9constructIS6_JRKSt21piecewise_construct_tSt5tupleIJRS3_EESE_IJEEEEEvRS8_PT_DpOT0_
FNDA:13761,_ZNSt16allocator_traitsISaINSt8__detail10_Hash_nodeISt4pairIKcP8TrieNodeELb0EEEEE9constructIS6_JRKSt21piecewise_construct_tSt5tupleIJRS3_EESE_IJEEEEEvRS8_PT_DpOT0_
FN:494,_ZNSt16allocator_traitsISaINSt7__cxx1112basic_stringIcSt11char_traitsIcESaIcEEEEE7destroyIS5_EEvRS6_PT_
FNDA:0,_ZNSt16allocator_traitsISaINSt7__cxx1112basic_stringIcSt11char_traitsIcESaIcEEEEE7destroyIS5_EEvRS6_PT_
FN:494,_ZNSt16allocator_traitsISaINSt8__detail10_Hash_nodeISt4pairIKcP8TrieNodeELb0EEEEE7destroyIS6_EEvRS8_PT_
FNDA:0,_ZNSt16allocator_traitsISaINSt8__detail10_Hash_nodeISt4pairIKcP8TrieNodeELb0EEEEE7destroyIS6_EEvRS8_PT_
FN:504,_ZNSt16allocator_traitsISaINSt7__cxx1112basic_stringIcSt11char_traitsIcESaIcEEEEE8max_sizeERKS6_
FNDA:0,_ZNSt16allocator_traitsISaINSt7__cxx1112basic_stringIcSt11char_traitsIcESaIcEEEEE8max_sizeERKS6_
FN:513,_ZNSt16allocator_traitsISaINSt7__cxx1112basic_stringIcSt11char_traitsIcESaIcEEEEE37select_on_container_copy_constructionERKS6_
FNDA:5,_ZNSt16allocator_traitsISaINSt7__cxx1112basic_stringIcSt11char_traitsIcESaIcEEEEE37select_on_container_copy_constructionERKS6_
FN:513,_ZNSt16allocator_traitsISaINSt8__detail10_Hash_nodeISt4pairIKcP8TrieNodeELb0EEEEE37select_on_container_copy_constructionERKS8_
FNDA:5,_ZNSt16allocator_traitsISaINSt8__detail10_Hash_nodeISt4pairIKcP8TrieNodeELb0EEEEE37select_on_container_copy_constructionERKS8_
FN:513,_ZNSt16allocator_traitsISaIcEE37select_on_container_copy_constructionERKS0_
FNDA:0,_ZNSt16allocator_traitsISaIcEE37select_on_container_copy_constructionERKS0_
FN:544,_ZSt18__do_alloc_on_moveISaINSt7__cxx1112basic_stringIcSt11char_traitsIcESaIcEEEEEvRT_S8_St17integral_constantIbLb1EE
FNDA:0,_ZSt18__do_alloc_on_moveISaINSt7__cxx1112basic_stringIcSt11char_traitsIcESaIcEEEEEvRT_S8_St17integral_constantIbLb1EE
FN:552,_ZSt15__alloc_on_moveISaINSt7__cxx1112basic_stringIcSt11char_traitsIcESaIcEEEEEvRT_S8_
FNDA:0,_ZSt15__alloc_on_moveISaINSt7__cxx1112basic_stringIcSt11char_traitsIcESaIcEEEEEvRT_S8_
DA:442,13514
DA:443,13514
DA:442,0
DA:443,0
DA:442,13761
DA:443,13761
DA:468,0
DA:469,0
DA:468,0
DA:469,0
DA:468,3
DA:469,3
DA:468,0
DA:469,0
DA:468,0
DA:469,0
DA:468,0
DA:469,0
DA:468,1
DA:469,1
DA:481,0
DA:483,0
DA:481,13761
DA:483,13761
DA:481,0
DA:483,0
DA:481,0
DA:483,0
DA:494,0
DA:496,0
DA:494,0
DA:496,0
DA:504,0
DA:505,0
DA:513,5
DA:514,5
DA:513,5
DA:514,5
DA:513,0
DA:514,0
DA:544,0
DA:545,0
DA:552,0
DA:556,0
DA:557,0
end_of_record
SF:/usr/include/c++/9/bits/allocator.h
FN:137,_ZNSaINSt7__cxx1112basic_stringIcSt11char_traitsIcESaIcEEEEC2Ev
FNDA:13767,_ZNSaINSt7__cxx1112basic_stringIcSt11char_traitsIcESaIcEEEEC2Ev
FN:137,_ZNSaINSt8__detail10_Hash_nodeISt4pairIKcP8TrieNodeELb0EEEEC2Ev
FNDA:13767,_ZNSaINSt8__detail10_Hash_nodeISt4pairIKcP8TrieNodeELb0EEEEC2Ev
FN:140,_ZNSaINSt8__detail10_Hash_nodeISt4pairIKcP8TrieNodeELb0EEEEC2ERKS7_
FNDA:10,_ZNSaINSt8__detail10_Hash_nodeISt4pairIKcP8TrieNodeELb0EEEEC2ERKS7_
FN:140,_ZNSaINSt7__cxx1112basic_stringIcSt11char_traitsIcESaIcEEEEC2ERKS5_
FNDA:10,_ZNSaINSt7__cxx1112basic_stringIcSt11char_traitsIcESaIcEEEEC2ERKS5_
FN:150,_ZNSaIPN4Json6Reader9ErrorInfoEEC2IS1_EERKSaIT_E
FNDA:0,_ZNSaIPN4Json6Reader9ErrorInfoEEC2IS1_EERKSaIT_E
FN:150,_ZNSaIPPN4Json5ValueEEC2IS1_EERKSaIT_E
FNDA:0,_ZNSaIPPN4Json5ValueEEC2IS1_EERKSaIT_E
FN:150,_ZNSaIPNSt8__detail15_Hash_node_baseEEC2INS_10_Hash_nodeISt4pairIKcP8TrieNodeELb0EEEEERKSaIT_E
FNDA:13517,_ZNSaIPNSt8__detail15_Hash_node_baseEEC2INS_10_Hash_nodeISt4pairIKcP8TrieNodeELb0EEEEERKSaIT_E
FN:152,_ZNSaIPNSt8__detail15_Hash_node_baseEED2Ev
FNDA:13517,_ZNSaIPNSt8__detail15_Hash_node_baseEED2Ev
FN:152,_ZNSaIPN4Json6Reader9ErrorInfoEED2Ev
FNDA:0,_ZNSaIPN4Json6Reader9ErrorInfoEED2Ev
FN:152,_ZNSaIPPN4Json5ValueEED2Ev
FNDA:0,_ZNSaIPPN4Json5ValueEED2Ev
FN:152,_ZNSaIN4Json6Reader9ErrorInfoEED2Ev
FNDA:0,_ZNSaIN4Json6Reader9ErrorInfoEED2Ev
FN:152,_ZNSaIPN4Json5ValueEED2Ev
FNDA:0,_ZNSaIPN4Json5ValueEED2Ev
FN:152,_ZNSaINSt7__cxx1112basic_stringIcSt11char_traitsIcESaIcEEEED2Ev
FNDA:14,_ZNSaINSt7__cxx1112basic_stringIcSt11char_traitsIcESaIcEEEED2Ev
FN:152,_ZNSaINSt8__detail10_Hash_nodeISt4pairIKcP8TrieNodeELb0EEEED2Ev
FNDA:13,_ZNSaINSt8__detail10_Hash_nodeISt4pairIKcP8TrieNodeELb0EEEED2Ev
DA:137,13767
DA:137,13767
DA:140,10
DA:141,10
DA:140,10
DA:141,10
DA:150,0
DA:150,0
DA:150,13517
DA:152,13517
DA:152,0
DA:152,0
DA:152,0
DA:152,0
DA:152,14
DA:152,13
end_of_record
SF:/usr/include/c++/9/bits/stl_uninitialized.h
FN:76,_ZNSt20__uninitialized_copyILb0EE13__uninit_copyISt13move_iteratorIPNSt7__cxx1112basic_stringIcSt11char_traitsIcESaIcEEEES9_EET0_T_SC_SB_
FNDA:0,_ZNSt20__uninitialized_copyILb0EE13__uninit_copyISt13move_iteratorIPNSt7__cxx1112basic_stringIcSt11char_traitsIcESaIcEEEES9_EET0_T_SC_SB_
FN:76,_ZNSt20__uninitialized_copyILb0EE13__uninit_copyIPKNSt7__cxx1112basic_stringIcSt11char_traitsIcESaIcEEEPS7_EET0_T_SC_SB_
FNDA:0,_ZNSt20__uninitialized_copyILb0EE13__uninit_copyIPKNSt7__cxx1112basic_stringIcSt11char_traitsIcESaIcEEEPS7_EET0_T_SC_SB_
FN:76,_ZNSt20__uninitialized_copyILb0EE13__uninit_copyIN9__gnu_cxx17__normal_iteratorIPKNSt7__cxx1112basic_stringIcSt11char_traitsIcESaIcEEESt6vectorIS9_SaIS9_EEEEPS9_EET0_T_SI_SH_
FNDA:5,_ZNSt20__uninitialized_copyILb0EE13__uninit_copyIN9__gnu_cxx17__normal_iteratorIPKNSt7__cxx1112basic_stringIcSt11char_traitsIcESaIcEEESt6vectorIS9_SaIS9_EEEEPS9_EET0_T_SI_SH_
FN:115,_ZSt18uninitialized_copyISt13move_iteratorIPNSt7__cxx1112basic_stringIcSt11char_traitsIcESaIcEEEES7_ET0_T_SA_S9_
FNDA:0,_ZSt18uninitialized_copyISt13move_iteratorIPNSt7__cxx1112basic_stringIcSt11char_traitsIcESaIcEEEES7_ET0_T_SA_S9_
FN:115,_ZSt18uninitialized_copyIPKNSt7__cxx1112basic_stringIcSt11char_traitsIcESaIcEEEPS5_ET0_T_SA_S9_
FNDA:0,_ZSt18uninitialized_copyIPKNSt7__cxx1112basic_stringIcSt11char_traitsIcESaIcEEEPS5_ET0_T_SA_S9_
FN:115,_ZSt18uninitialized_copyIN9__gnu_cxx17__normal_iteratorIPKNSt7__cxx1112basic_stringIcSt11char_traitsIcESaIcEEESt6vectorIS7_SaIS7_EEEEPS7_ET0_T_SG_SF_
FNDA:5,_ZSt18uninitialized_copyIN9__gnu_cxx17__normal_iteratorIPKNSt7__cxx1112basic_stringIcSt11char_traitsIcESaIcEEESt6vectorIS7_SaIS7_EEEEPS7_ET0_T_SG_SF_
FN:305,_ZSt22__uninitialized_copy_aISt13move_iteratorIPNSt7__cxx1112basic_stringIcSt11char_traitsIcESaIcEEEES7_S6_ET0_T_SA_S9_RSaIT1_E
FNDA:0,_ZSt22__uninitialized_copy_aISt13move_iteratorIPNSt7__cxx1112basic_stringIcSt11char_traitsIcESaIcEEEES7_S6_ET0_T_SA_S9_RSaIT1_E
FN:305,_ZSt22__uninitialized_copy_aIPKNSt7__cxx1112basic_stringIcSt11char_traitsIcESaIcEEEPS5_S5_ET0_T_SA_S9_RSaIT1_E
FNDA:0,_ZSt22__uninitialized_copy_aIPKNSt7__cxx1112basic_stringIcSt11char_traitsIcESaIcEEEPS5_S5_ET0_T_SA_S9_RSaIT1_E
FN:305,_ZSt22__uninitialized_copy_aIN9__gnu_cxx17__normal_iteratorIPKNSt7__cxx1112basic_stringIcSt11char_traitsIcESaIcEEESt6vectorIS7_SaIS7_EEEEPS7_S7_ET0_T_SG_SF_RSaIT1_E
FNDA:5,_ZSt22__uninitialized_copy_aIN9__gnu_cxx17__normal_iteratorIPKNSt7__cxx1112basic_stringIcSt11char_traitsIcESaIcEEESt6vectorIS7_SaIS7_EEEEPS7_S7_ET0_T_SG_SF_RSaIT1_E
FN:323,_ZSt34__uninitialized_move_if_noexcept_aIPNSt7__cxx1112basic_stringIcSt11char_traitsIcESaIcEEES6_SaIS5_EET0_T_S9_S8_RT1_
FNDA:0,_ZSt34__uninitialized_move_if_noexcept_aIPNSt7__cxx1112basic_stringIcSt11char_traitsIcESaIcEEES6_SaIS5_EET0_T_S9_S8_RT1_
FN:905,_ZSt19__relocate_object_aINSt7__cxx1112basic_stringIcSt11char_traitsIcESaIcEEES5_SaIS5_EEvPT_PT0_RT1_
FNDA:0,_ZSt19__relocate_object_aINSt7__cxx1112basic_stringIcSt11char_traitsIcESaIcEEES5_SaIS5_EEvPT_PT0_RT1_
FN:936,_ZSt14__relocate_a_1IPNSt7__cxx1112basic_stringIcSt11char_traitsIcESaIcEEES6_SaIS5_EET0_T_S9_S8_RT1_
FNDA:0,_ZSt14__relocate_a_1IPNSt7__cxx1112basic_stringIcSt11char_traitsIcESaIcEEES6_SaIS5_EET0_T_S9_S8_RT1_
FN:958,_ZSt12__relocate_aIPNSt7__cxx1112basic_stringIcSt11char_traitsIcESaIcEEES6_SaIS5_EET0_T_S9_S8_RT1_
FNDA:0,_ZSt12__relocate_aIPNSt7__cxx1112basic_stringIcSt11char_traitsIcESaIcEEES6_SaIS5_EET0_T_S9_S8_RT1_
DA:76,0
DA:79,0
DA:82,0
DA:83,0
DA:84,0
DA:86,0
DA:88,0
DA:89,0
DA:76,0
DA:79,0
DA:82,0
DA:83,0
DA:84,0
DA:86,0
DA:88,0
DA:89,0
DA:76,5
DA:79,5
DA:82,5
DA:83,0
DA:84,5
DA:86,0
DA:88,0
DA:89,0
DA:115,0
DA:134,0
DA:140,0
DA:115,0
DA:134,0
DA:140,0
DA:115,5
DA:134,5
DA:140,5
DA:305,0
DA:307,0
DA:305,0
DA:307,0
DA:305,5
DA:307,5
DA:323,0
DA:329,0
DA:330,0
DA:905,0
DA:912,0
DA:913,0
DA:914,0
DA:936,0
DA:948,0
DA:949,0
DA:950,0
DA:952,0
DA:958,0
DA:964,0
DA:966,0
end_of_record
SF:/usr/include/c++/9/ext/alloc_traits.h
FN:97,_ZN9__gnu_cxx14__alloc_traitsISaINSt7__cxx1112basic_stringIcSt11char_traitsIcESaIcEEEES6_E17_S_select_on_copyERKS7_
FNDA:5,_ZN9__gnu_cxx14__alloc_traitsISaINSt7__cxx1112basic_stringIcSt11char_traitsIcESaIcEEEES6_E17_S_select_on_copyERKS7_
FN:97,_ZN9__gnu_cxx14__alloc_traitsISaINSt8__detail10_Hash_nodeISt4pairIKcP8TrieNodeELb0EEEES8_E17_S_select_on_copyERKS9_
FNDA:5,_ZN9__gnu_cxx14__alloc_traitsISaINSt8__detail10_Hash_nodeISt4pairIKcP8TrieNodeELb0EEEES8_E17_S_select_on_copyERKS9_
FN:97,_ZN9__gnu_cxx14__alloc_traitsISaIcEcE17_S_select_on_copyERKS1_
FNDA:0,_ZN9__gnu_cxx14__alloc_traitsISaIcEcE17_S_select_on_copyERKS1_
DA:97,5
DA:98,5
DA:97,5
DA:98,5
DA:97,0
DA:98,0
end_of_record
SF:/usr/include/c++/9/bits/move.h
FN:47,_ZSt11__addressofINSt8__detail10_Hash_nodeISt4pairIKcP8TrieNodeELb0EEEEPT_RS8_
FNDA:0,_ZSt11__addressofINSt8__detail10_Hash_nodeISt4pairIKcP8TrieNodeELb0EEEEPT_RS8_
FN:47,_ZSt11__addressofIN4Json6Reader9ErrorInfoEEPT_RS3_
FNDA:0,_ZSt11__addressofIN4Json6Reader9ErrorInfoEEPT_RS3_
FN:47,_ZSt11__addressofIPNSt8__detail15_Hash_node_baseEEPT_RS3_
FNDA:3,_ZSt11__addressofIPNSt8__detail15_Hash_node_baseEEPT_RS3_
FN:47,_ZSt11__addressofINSt7__cxx1112basic_stringIcSt11char_traitsIcESaIcEEEEPT_RS6_
FNDA:1,_ZSt11__addressofINSt7__cxx1112basic_stringIcSt11char_traitsIcESaIcEEEEPT_RS6_
FN:74,_ZSt7forwardIiEOT_RNSt16remove_referenceIS0_E4typeE
FNDA:12,_ZSt7forwardIiEOT_RNSt16remove_referenceIS0_E4typeE
FN:74,_ZSt7forwardINSt7__cxx1112basic_stringIcSt11char_traitsIcESaIcEEEEOT_RNSt16remove_referenceIS6_E4typeE
FNDA:0,_ZSt7forwardINSt7__cxx1112basic_stringIcSt11char_traitsIcESaIcEEEEOT_RNSt16remove_referenceIS6_E4typeE
FN:74,_ZSt7forwardIRP8TrieNodeEOT_RNSt16remove_referenceIS3_E4typeE
FNDA:10,_ZSt7forwardIRP8TrieNodeEOT_RNSt16remove_referenceIS3_E4typeE
FN:74,_ZSt7forwardIP8TrieNodeEOT_RNSt16remove_referenceIS2_E4typeE
FNDA:4,_ZSt7forwardIP8TrieNodeEOT_RNSt16remove_referenceIS2_E4typeE
FN:74,_ZSt7forwardIRKNSt7__cxx1112basic_stringIcSt11char_traitsIcESaIcEEEEOT_RNSt16remove_referenceIS8_E4typeE
FNDA:0,_ZSt7forwardIRKNSt7__cxx1112basic_stringIcSt11char_traitsIcESaIcEEEEOT_RNSt16remove_referenceIS8_E4typeE
FN:74,_ZSt7forwardISaINSt8__detail10_Hash_nodeISt4pairIKcP8TrieNodeELb0EEEEEOT_RNSt16remove_referenceIS9_E4typeE
FNDA:10,_ZSt7forwardISaINSt8__detail10_Hash_nodeISt4pairIKcP8TrieNodeELb0EEEEEOT_RNSt16remove_referenceIS9_E4typeE
FN:74,_ZSt7forwardIRKSt4pairIKcP8TrieNodeEEOT_RNSt16remove_referenceIS7_E4typeE
FNDA:349,_ZSt7forwardIRKSt4pairIKcP8TrieNodeEEOT_RNSt16remove_referenceIS7_E4typeE
FN:74,_ZSt7forwardIRKSt21piecewise_construct_tEOT_RNSt16remove_referenceIS3_E4typeE
FNDA:41283,_ZSt7forwardIRKSt21piecewise_construct_tEOT_RNSt16remove_referenceIS3_E4typeE
FN:74,_ZSt7forwardISt5tupleIJRKcEEEOT_RNSt16remove_referenceIS4_E4typeE
FNDA:41283,_ZSt7forwardISt5tupleIJRKcEEEOT_RNSt16remove_referenceIS4_E4typeE
FN:74,_ZSt7forwardISt5tupleIJEEEOT_RNSt16remove_referenceIS2_E4typeE
FNDA:41283,_ZSt7forwardISt5tupleIJEEEOT_RNSt16remove_referenceIS2_E4typeE
FN:74,_ZSt7forwardIRSt4pairIKcP8TrieNodeEEOT_RNSt16remove_referenceIS6_E4typeE
FNDA:28001,_ZSt7forwardIRSt4pairIKcP8TrieNodeEEOT_RNSt16remove_referenceIS6_E4typeE
FN:74,_ZSt7forwardIRKcEOT_RNSt16remove_referenceIS2_E4typeE
FNDA:27522,_ZSt7forwardIRKcEOT_RNSt16remove_referenceIS2_E4typeE
FN:99,_ZSt4moveIRSaINSt7__cxx1112basic_stringIcSt11char_traitsIcESaIcEEEEEONSt16remove_referenceIT_E4typeEOS9_
FNDA:0,_ZSt4moveIRSaINSt7__cxx1112basic_stringIcSt11char_traitsIcESaIcEEEEEONSt16remove_referenceIT_E4typeEOS9_
FN:99,_ZSt4moveIRSt6vectorINSt7__cxx1112basic_stringIcSt11char_traitsIcESaIcEEESaIS6_EEEONSt16remove_referenceIT_E4typeEOSB_
FNDA:0,_ZSt4moveIRSt6vectorINSt7__cxx1112basic_stringIcSt11char_traitsIcESaIcEEESaIS6_EEEONSt16remove_referenceIT_E4typeEOSB_
FN:99,_ZSt4moveIRSt11_Tuple_implILm1EJP8TrieNodeEEEONSt16remove_referenceIT_E4typeEOS6_
FNDA:2,_ZSt4moveIRSt11_Tuple_implILm1EJP8TrieNodeEEEONSt16remove_referenceIT_E4typeEOS6_
FN:99,_ZSt4moveIRPNSt7__cxx1112basic_stringIcSt11char_traitsIcESaIcEEEEONSt16remove_referenceIT_E4typeEOS9_
FNDA:0,_ZSt4moveIRPNSt7__cxx1112basic_stringIcSt11char_traitsIcESaIcEEEEONSt16remove_referenceIT_E4typeEOS9_
FN:99,_ZSt4moveIRPNSt7__cxx1118basic_stringstreamIcSt11char_traitsIcESaIcEEEEONSt16remove_referenceIT_E4typeEOS9_
FNDA:0,_ZSt4moveIRPNSt7__cxx1118basic_stringstreamIcSt11char_traitsIcESaIcEEEEONSt16remove_referenceIT_E4typeEOS9_
FN:99,_ZSt4moveIRNSt7__cxx1112basic_stringIcSt11char_traitsIcESaIcEEEEONSt16remove_referenceIT_E4typeEOS8_
FNDA:0,_ZSt4moveIRNSt7__cxx1112basic_stringIcSt11char_traitsIcESaIcEEEEONSt16remove_referenceIT_E4typeEOS8_
FN:99,_ZSt4moveIRSaIcEEONSt16remove_referenceIT_E4typeEOS3_
FNDA:0,_ZSt4moveIRSaIcEEONSt16remove_referenceIT_E4typeEOS3_
FN:138,_ZSt9addressofIPNSt8__detail15_Hash_node_baseEEPT_RS3_
FNDA:3,_ZSt9addressofIPNSt8__detail15_Hash_node_baseEEPT_RS3_
FN:138,_ZSt9addressofINSt8__detail10_Hash_nodeISt4pairIKcP8TrieNodeELb0EEEEPT_RS8_
FNDA:0,_ZSt9addressofINSt8__detail10_Hash_nodeISt4pairIKcP8TrieNodeELb0EEEEPT_RS8_
DA:47,0
DA:48,0
DA:47,0
DA:48,0
DA:47,3
DA:48,3
DA:47,1
DA:48,1
DA:74,0
DA:75,0
DA:74,27522
DA:75,27522
DA:74,28001
DA:75,28001
DA:74,41283
DA:75,41283
DA:74,41283
DA:75,41283
DA:74,41283
DA:75,41283
DA:74,349
DA:75,349
DA:74,10
DA:75,10
DA:74,0
DA:75,0
DA:74,4
DA:75,4
DA:74,10
DA:75,10
DA:74,12
DA:75,12
DA:99,0
DA:100,0
DA:99,0
DA:100,0
DA:99,2
DA:100,2
DA:99,0
DA:100,0
DA:99,0
DA:100,0
DA:99,0
DA:100,0
DA:99,0
DA:100,0
DA:138,0
DA:139,0
DA:138,3
DA:139,3
end_of_record
SF:/usr/include/c++/9/initializer_list
FN:71,_ZNKSt16initializer_listINSt7__cxx1112basic_stringIcSt11char_traitsIcESaIcEEEE4sizeEv
FNDA:0,_ZNKSt16initializer_listINSt7__cxx1112basic_stringIcSt11char_traitsIcESaIcEEEE4sizeEv
FN:75,_ZNKSt16initializer_listINSt7__cxx1112basic_stringIcSt11char_traitsIcESaIcEEEE5beginEv
FNDA:0,_ZNKSt16initializer_listINSt7__cxx1112basic_stringIcSt11char_traitsIcESaIcEEEE5beginEv
FN:79,_ZNKSt16initializer_listINSt7__cxx1112basic_stringIcSt11char_traitsIcESaIcEEEE3endEv
FNDA:0,_ZNKSt16initializer_listINSt7__cxx1112basic_stringIcSt11char_traitsIcESaIcEEEE3endEv
DA:71,0
DA:75,0
DA:79,0
end_of_record
SF:/usr/include/c++/9/bits/stl_vector.h
FN:94,_ZNSt12_Vector_baseINSt7__cxx1112basic_stringIcSt11char_traitsIcESaIcEEESaIS5_EE17_Vector_impl_dataC2Ev
FNDA:13772,_ZNSt12_Vector_baseINSt7__cxx1112basic_stringIcSt11char_traitsIcESaIcEEESaIS5_EE17_Vector_impl_dataC2Ev
FN:106,_ZNSt12_Vector_baseINSt7__cxx1112basic_stringIcSt11char_traitsIcESaIcEEESaIS5_EE17_Vector_impl_data12_M_copy_dataERKS8_
FNDA:0,_ZNSt12_Vector_baseINSt7__cxx1112basic_stringIcSt11char_traitsIcESaIcEEESaIS5_EE17_Vector_impl_data12_M_copy_dataERKS8_
FN:114,_ZNSt12_Vector_baseINSt7__cxx1112basic_stringIcSt11char_traitsIcESaIcEEESaIS5_EE17_Vector_impl_data12_M_swap_dataERS8_
FNDA:0,_ZNSt12_Vector_baseINSt7__cxx1112basic_stringIcSt11char_traitsIcESaIcEEESaIS5_EE17_Vector_impl_data12_M_swap_dataERS8_
FN:128,_ZNSt12_Vector_baseINSt7__cxx1112basic_stringIcSt11char_traitsIcESaIcEEESaIS5_EE12_Vector_implC2Ev
FNDA:13767,_ZNSt12_Vector_baseINSt7__cxx1112basic_stringIcSt11char_traitsIcESaIcEEESaIS5_EE12_Vector_implC2Ev
FN:133,_ZNSt12_Vector_baseINSt7__cxx1112basic_stringIcSt11char_traitsIcESaIcEEESaIS5_EE12_Vector_implC2ERKS6_
FNDA:5,_ZNSt12_Vector_baseINSt7__cxx1112basic_stringIcSt11char_traitsIcESaIcEEESaIS5_EE12_Vector_implC2ERKS6_
FN:273,_ZNSt12_Vector_baseINSt7__cxx1112basic_stringIcSt11char_traitsIcESaIcEEESaIS5_EE19_M_get_Tp_allocatorEv
FNDA:14,_ZNSt12_Vector_baseINSt7__cxx1112basic_stringIcSt11char_traitsIcESaIcEEESaIS5_EE19_M_get_Tp_allocatorEv
FN:277,_ZNKSt12_Vector_baseINSt7__cxx1112basic_stringIcSt11char_traitsIcESaIcEEESaIS5_EE19_M_get_Tp_allocatorEv
FNDA:5,_ZNKSt12_Vector_baseINSt7__cxx1112basic_stringIcSt11char_traitsIcESaIcEEESaIS5_EE19_M_get_Tp_allocatorEv
FN:281,_ZNKSt12_Vector_baseINSt7__cxx1112basic_stringIcSt11char_traitsIcESaIcEEESaIS5_EE13get_allocatorEv
FNDA:0,_ZNKSt12_Vector_baseINSt7__cxx1112basic_stringIcSt11char_traitsIcESaIcEEESaIS5_EE13get_allocatorEv
FN:285,_ZNSt12_Vector_baseINSt7__cxx1112basic_stringIcSt11char_traitsIcESaIcEEESaIS5_EEC2Ev
FNDA:13767,_ZNSt12_Vector_baseINSt7__cxx1112basic_stringIcSt11char_traitsIcESaIcEEESaIS5_EEC2Ev
FN:290,_ZNSt12_Vector_baseINSt7__cxx1112basic_stringIcSt11char_traitsIcESaIcEEESaIS5_EEC2ERKS6_
FNDA:0,_ZNSt12_Vector_baseINSt7__cxx1112basic_stringIcSt11char_traitsIcESaIcEEESaIS5_EEC2ERKS6_
FN:300,_ZNSt12_Vector_baseINSt7__cxx1112basic_stringIcSt11char_traitsIcESaIcEEESaIS5_EEC2EmRKS6_
FNDA:5,_ZNSt12_Vector_baseINSt7__cxx1112basic_stringIcSt11char_traitsIcESaIcEEESaIS5_EEC2EmRKS6_
FN:330,_ZNSt12_Vector_baseINSt7__cxx1112basic_stringIcSt11char_traitsIcESaIcEEESaIS5_EED2Ev
FNDA:9,_ZNSt12_Vector_baseINSt7__cxx1112basic_stringIcSt11char_traitsIcESaIcEEESaIS5_EED2Ev
FN:340,_ZNSt12_Vector_baseINSt7__cxx1112basic_stringIcSt11char_traitsIcESaIcEEESaIS5_EE11_M_allocateEm
FNDA:5,_ZNSt12_Vector_baseINSt7__cxx1112basic_stringIcSt11char_traitsIcESaIcEEESaIS5_EE11_M_allocateEm
FN:347,_ZNSt12_Vector_baseINSt7__cxx1112basic_stringIcSt11char_traitsIcESaIcEEESaIS5_EE13_M_deallocateEPS5_m
FNDA:9,_ZNSt12_Vector_baseINSt7__cxx1112basic_stringIcSt11char_traitsIcESaIcEEESaIS5_EE13_M_deallocateEPS5_m
FN:356,_ZNSt12_Vector_baseINSt7__cxx1112basic_stringIcSt11char_traitsIcESaIcEEESaIS5_EE17_M_create_storageEm
FNDA:5,_ZNSt12_Vector_baseINSt7__cxx1112basic_stringIcSt11char_traitsIcESaIcEEESaIS5_EE17_M_create_storageEm
FN:428,_ZNSt6vectorINSt7__cxx1112basic_stringIcSt11char_traitsIcESaIcEEESaIS5_EE19_S_nothrow_relocateESt17integral_constantIbLb1EE
FNDA:0,_ZNSt6vectorINSt7__cxx1112basic_stringIcSt11char_traitsIcESaIcEEESaIS5_EE19_S_nothrow_relocateESt17integral_constantIbLb1EE
FN:441,_ZNSt6vectorINSt7__cxx1112basic_stringIcSt11char_traitsIcESaIcEEESaIS5_EE15_S_use_relocateEv
FNDA:0,_ZNSt6vectorINSt7__cxx1112basic_stringIcSt11char_traitsIcESaIcEEESaIS5_EE15_S_use_relocateEv
FN:450,_ZNSt6vectorINSt7__cxx1112basic_stringIcSt11char_traitsIcESaIcEEESaIS5_EE14_S_do_relocateEPS5_S8_S8_RS6_St17integral_constantIbLb1EE
FNDA:0,_ZNSt6vectorINSt7__cxx1112basic_stringIcSt11char_traitsIcESaIcEEESaIS5_EE14_S_do_relocateEPS5_S8_S8_RS6_St17integral_constantIbLb1EE
FN:462,_ZNSt6vectorINSt7__cxx1112basic_stringIcSt11char_traitsIcESaIcEEESaIS5_EE11_S_relocateEPS5_S8_S8_RS6_
FNDA:0,_ZNSt6vectorINSt7__cxx1112basic_stringIcSt11char_traitsIcESaIcEEESaIS5_EE11_S_relocateEPS5_S8_S8_RS6_
FN:484,_ZNSt6vectorINSt7__cxx1112basic_stringIcSt11char_traitsIcESaIcEEESaIS5_EEC2Ev
FNDA:13767,_ZNSt6vectorINSt7__cxx1112basic_stringIcSt11char_traitsIcESaIcEEESaIS5_EEC2Ev
FN:494,_ZNSt6vectorINSt7__cxx1112basic_stringIcSt11char_traitsIcESaIcEEESaIS5_EEC2ERKS6_
FNDA:0,_ZNSt6vectorINSt7__cxx1112basic_stringIcSt11char_traitsIcESaIcEEESaIS5_EEC2ERKS6_
FN:550,_ZNSt6vectorINSt7__cxx1112basic_stringIcSt11char_traitsIcESaIcEEESaIS5_EEC2ERKS7_
FNDA:5,_ZNSt6vectorINSt7__cxx1112basic_stringIcSt11char_traitsIcESaIcEEESaIS5_EEC2ERKS7_
FN:675,_ZNSt6vectorINSt7__cxx1112basic_stringIcSt11char_traitsIcESaIcEEESaIS5_EED2Ev
FNDA:9,_ZNSt6vectorINSt7__cxx1112basic_stringIcSt11char_traitsIcESaIcEEESaIS5_EED2Ev
FN:706,_ZNSt6vectorINSt7__cxx1112basic_stringIcSt11char_traitsIcESaIcEEESaIS5_EEaSEOS7_
FNDA:0,_ZNSt6vectorINSt7__cxx1112basic_stringIcSt11char_traitsIcESaIcEEESaIS5_EEaSEOS7_
FN:727,_ZNSt6vectorINSt7__cxx1112basic_stringIcSt11char_traitsIcESaIcEEESaIS5_EEaSESt16initializer_listIS5_E
FNDA:0,_ZNSt6vectorINSt7__cxx1112basic_stringIcSt11char_traitsIcESaIcEEESaIS5_EEaSESt16initializer_listIS5_E
FN:808,_ZNSt6vectorINSt7__cxx1112basic_stringIcSt11char_traitsIcESaIcEEESaIS5_EE5beginEv
FNDA:0,_ZNSt6vectorINSt7__cxx1112basic_stringIcSt11char_traitsIcESaIcEEESaIS5_EE5beginEv
FN:817,_ZNKSt6vectorINSt7__cxx1112basic_stringIcSt11char_traitsIcESaIcEEESaIS5_EE5beginEv
FNDA:5,_ZNKSt6vectorINSt7__cxx1112basic_stringIcSt11char_traitsIcESaIcEEESaIS5_EE5beginEv
FN:826,_ZNSt6vectorINSt7__cxx1112basic_stringIcSt11char_traitsIcESaIcEEESaIS5_EE3endEv
FNDA:0,_ZNSt6vectorINSt7__cxx1112basic_stringIcSt11char_traitsIcESaIcEEESaIS5_EE3endEv
FN:835,_ZNKSt6vectorINSt7__cxx1112basic_stringIcSt11char_traitsIcESaIcEEESaIS5_EE3endEv
FNDA:5,_ZNKSt6vectorINSt7__cxx1112basic_stringIcSt11char_traitsIcESaIcEEESaIS5_EE3endEv
FN:915,_ZNKSt6vectorINSt7__cxx1112basic_stringIcSt11char_traitsIcESaIcEEESaIS5_EE4sizeEv
FNDA:5,_ZNKSt6vectorINSt7__cxx1112basic_stringIcSt11char_traitsIcESaIcEEESaIS5_EE4sizeEv
FN:920,_ZNKSt6vectorINSt7__cxx1112basic_stringIcSt11char_traitsIcESaIcEEESaIS5_EE8max_sizeEv
FNDA:0,_ZNKSt6vectorINSt7__cxx1112basic_stringIcSt11char_traitsIcESaIcEEESaIS5_EE8max_sizeEv
FN:995,_ZNKSt6vectorINSt7__cxx1112basic_stringIcSt11char_traitsIcESaIcEEESaIS5_EE8capacityEv
FNDA:0,_ZNKSt6vectorINSt7__cxx1112basic_stringIcSt11char_traitsIcESaIcEEESaIS5_EE8capacityEv
FN:1184,_ZNSt6vectorINSt7__cxx1112basic_stringIcSt11char_traitsIcESaIcEEESaIS5_EE9push_backERKS5_
FNDA:0,_ZNSt6vectorINSt7__cxx1112basic_stringIcSt11char_traitsIcESaIcEEESaIS5_EE9push_backERKS5_
FN:1505,_ZNSt6vectorINSt7__cxx1112basic_stringIcSt11char_traitsIcESaIcEEESaIS5_EE20_M_allocate_and_copyIPKS5_EEPS5_mT_SC_
FNDA:0,_ZNSt6vectorINSt7__cxx1112basic_stringIcSt11char_traitsIcESaIcEEESaIS5_EE20_M_allocate_and_copyIPKS5_EEPS5_mT_SC_
FN:1753,_ZNKSt6vectorINSt7__cxx1112basic_stringIcSt11char_traitsIcESaIcEEESaIS5_EE12_M_check_lenEmPKc
FNDA:0,_ZNKSt6vectorINSt7__cxx1112basic_stringIcSt11char_traitsIcESaIcEEESaIS5_EE12_M_check_lenEmPKc
FN:1764,_ZNSt6vectorINSt7__cxx1112basic_stringIcSt11char_traitsIcESaIcEEESaIS5_EE17_S_check_init_lenEmRKS6_
FNDA:0,_ZNSt6vectorINSt7__cxx1112basic_stringIcSt11char_traitsIcESaIcEEESaIS5_EE17_S_check_init_lenEmRKS6_
FN:1773,_ZNSt6vectorINSt7__cxx1112basic_stringIcSt11char_traitsIcESaIcEEESaIS5_EE11_S_max_sizeERKS6_
FNDA:0,_ZNSt6vectorINSt7__cxx1112basic_stringIcSt11char_traitsIcESaIcEEESaIS5_EE11_S_max_sizeERKS6_
FN:1789,_ZNSt6vectorINSt7__cxx1112basic_stringIcSt11char_traitsIcESaIcEEESaIS5_EE15_M_erase_at_endEPS5_
FNDA:0,_ZNSt6vectorINSt7__cxx1112basic_stringIcSt11char_traitsIcESaIcEEESaIS5_EE15_M_erase_at_endEPS5_
FN:1812,_ZNSt6vectorINSt7__cxx1112basic_stringIcSt11char_traitsIcESaIcEEESaIS5_EE14_M_move_assignEOS7_St17integral_constantIbLb1EE
FNDA:0,_ZNSt6vectorINSt7__cxx1112basic_stringIcSt11char_traitsIcESaIcEEESaIS5_EE14_M_move_assignEOS7_St17integral_constantIbLb1EE
DA:94,13772
DA:95,13772
DA:96,13772
DA:106,0
DA:108,0
DA:109,0
DA:110,0
DA:111,0
DA:114,0
DA:118,0
DA:119,0
DA:120,0
DA:121,0
DA:122,0
DA:128,13767
DA:130,13767
DA:131,13767
DA:133,5
DA:134,5
DA:135,5
DA:273,14
DA:274,14
DA:277,5
DA:278,5
DA:281,0
DA:282,0
DA:285,13767
DA:290,0
DA:291,0
DA:300,5
DA:301,5
DA:302,5
DA:330,9
DA:332,9
DA:333,9
DA:334,9
DA:340,5
DA:343,5
DA:347,9
DA:350,9
DA:351,1
DA:352,9
DA:356,5
DA:358,5
DA:359,5
DA:360,5
DA:361,5
DA:428,0
DA:433,0
DA:441,0
DA:446,0
DA:450,0
DA:453,0
DA:462,0
DA:466,0
DA:484,13767
DA:494,0
DA:495,0
DA:550,5
DA:552,5
DA:554,5
DA:555,5
DA:557,5
DA:558,5
DA:675,9
DA:677,9
DA:678,9
DA:680,9
DA:706,0
DA:708,0
DA:711,0
DA:712,0
DA:727,0
DA:729,0
DA:731,0
DA:808,0
DA:809,0
DA:817,5
DA:818,5
DA:826,0
DA:827,0
DA:835,5
DA:836,5
DA:915,5
DA:916,5
DA:920,0
DA:921,0
DA:995,0
DA:996,0
DA:997,0
DA:1184,0
DA:1186,0
DA:1189,0
DA:1191,0
DA:1195,0
DA:1196,0
DA:1505,0
DA:1508,0
DA:1511,0
DA:1512,0
DA:1513,0
DA:1515,0
DA:1517,0
DA:1518,0
DA:1753,0
DA:1755,0
DA:1756,0
DA:1758,0
DA:1759,0
DA:1764,0
DA:1766,0
DA:1767,0
DA:1769,0
DA:1773,0
DA:1778,0
DA:1780,0
DA:1781,0
DA:1789,0
DA:1791,0
DA:1793,0
DA:1794,0
DA:1795,0
DA:1798,0
DA:1812,0
DA:1814,0
DA:1815,0
DA:1816,0
DA:1817,0
DA:1818,0
end_of_record
SF:/mnt/c/users/elsar/dev/tiralabra/patternmatching/includes/apicall.h
FN:21,_ZN7APICallC2Ev
FNDA:0,_ZN7APICallC2Ev
FN:28,_ZN7APICall7apicallERNSt7__cxx1112basic_stringIcSt11char_traitsIcESaIcEEES6_
FNDA:0,_ZN7APICall7apicallERNSt7__cxx1112basic_stringIcSt11char_traitsIcESaIcEEES6_
FN:63,_ZN7APICall20GetSizeOfDatafromAPIEPvmmS0_
FNDA:0,_ZN7APICall20GetSizeOfDatafromAPIEPvmmS0_
FN:71,_ZN7APICall11dataparsingB5cxx11Ev
FNDA:0,_ZN7APICall11dataparsingB5cxx11Ev
DA:21,0
DA:23,0
DA:24,0
DA:28,0
DA:32,0
DA:34,0
DA:35,0
DA:36,0
DA:38,0
DA:39,0
DA:40,0
DA:41,0
DA:42,0
DA:44,0
DA:47,0
DA:49,0
DA:53,0
DA:55,0
DA:56,0
DA:57,0
DA:58,0
DA:63,0
DA:65,0
DA:66,0
DA:71,0
DA:73,0
DA:74,0
DA:75,0
DA:76,0
DA:77,0
DA:78,0
DA:79,0
DA:81,0
DA:82,0
DA:83,0
DA:84,0
DA:85,0
DA:87,0
DA:89,0
DA:91,0
DA:92,0
DA:95,0
DA:97,0
DA:98,0
DA:102,0
DA:103,0
end_of_record
SF:/usr/include/c++/9/bits/stl_construct.h
FN:74,_ZSt10_ConstructINSt7__cxx1112basic_stringIcSt11char_traitsIcESaIcEEEJS5_EEvPT_DpOT0_
FNDA:0,_ZSt10_ConstructINSt7__cxx1112basic_stringIcSt11char_traitsIcESaIcEEEJS5_EEvPT_DpOT0_
FN:74,_ZSt10_ConstructINSt7__cxx1112basic_stringIcSt11char_traitsIcESaIcEEEJRKS5_EEvPT_DpOT0_
FNDA:0,_ZSt10_ConstructINSt7__cxx1112basic_stringIcSt11char_traitsIcESaIcEEEJRKS5_EEvPT_DpOT0_
FN:97,_ZSt8_DestroyIN4Json6Reader9ErrorInfoEEvPT_
FNDA:0,_ZSt8_DestroyIN4Json6Reader9ErrorInfoEEvPT_
FN:97,_ZSt8_DestroyINSt7__cxx1112basic_stringIcSt11char_traitsIcESaIcEEEEvPT_
FNDA:1,_ZSt8_DestroyINSt7__cxx1112basic_stringIcSt11char_traitsIcESaIcEEEEvPT_
FN:105,_ZNSt12_Destroy_auxILb0EE9__destroyIPN4Json6Reader9ErrorInfoEEEvT_S6_
FNDA:0,_ZNSt12_Destroy_auxILb0EE9__destroyIPN4Json6Reader9ErrorInfoEEEvT_S6_
FN:105,_ZNSt12_Destroy_auxILb0EE9__destroyIPNSt7__cxx1112basic_stringIcSt11char_traitsIcESaIcEEEEEvT_S9_
FNDA:9,_ZNSt12_Destroy_auxILb0EE9__destroyIPNSt7__cxx1112basic_stringIcSt11char_traitsIcESaIcEEEEEvT_S9_
FN:127,_ZSt8_DestroyIPN4Json6Reader9ErrorInfoEEvT_S4_
FNDA:0,_ZSt8_DestroyIPN4Json6Reader9ErrorInfoEEvT_S4_
FN:127,_ZSt8_DestroyIPNSt7__cxx1112basic_stringIcSt11char_traitsIcESaIcEEEEvT_S7_
FNDA:9,_ZSt8_DestroyIPNSt7__cxx1112basic_stringIcSt11char_traitsIcESaIcEEEEvT_S7_
FN:203,_ZSt8_DestroyIPN4Json6Reader9ErrorInfoES2_EvT_S4_RSaIT0_E
FNDA:0,_ZSt8_DestroyIPN4Json6Reader9ErrorInfoES2_EvT_S4_RSaIT0_E
FN:203,_ZSt8_DestroyIPNSt7__cxx1112basic_stringIcSt11char_traitsIcESaIcEEES5_EvT_S7_RSaIT0_E
FNDA:9,_ZSt8_DestroyIPNSt7__cxx1112basic_stringIcSt11char_traitsIcESaIcEEES5_EvT_S7_RSaIT0_E
DA:74,0
DA:75,0
DA:74,0
DA:75,0
DA:97,0
DA:98,0
DA:97,1
DA:98,1
DA:105,0
DA:107,0
DA:108,0
DA:109,0
DA:105,10
DA:107,10
DA:108,1
DA:109,9
DA:127,0
DA:137,0
DA:138,0
DA:127,9
DA:137,9
DA:138,9
DA:203,0
DA:206,0
DA:207,0
DA:203,9
DA:206,9
DA:207,9
end_of_record
SF:/usr/include/c++/9/bits/basic_string.h
FN:247,_ZNSt7__cxx1112basic_stringIcSt11char_traitsIcESaIcEE16_M_construct_auxIPcEEvT_S7_St12__false_type
FNDA:0,_ZNSt7__cxx1112basic_stringIcSt11char_traitsIcESaIcEE16_M_construct_auxIPcEEvT_S7_St12__false_type
FN:247,_ZNSt7__cxx1112basic_stringIcSt11char_traitsIcESaIcEE16_M_construct_auxIPKcEEvT_S8_St12__false_type
FNDA:0,_ZNSt7__cxx1112basic_stringIcSt11char_traitsIcESaIcEE16_M_construct_auxIPKcEEvT_S8_St12__false_type
FN:267,_ZNSt7__cxx1112basic_stringIcSt11char_traitsIcESaIcEE12_M_constructIPcEEvT_S7_
FNDA:0,_ZNSt7__cxx1112basic_stringIcSt11char_traitsIcESaIcEE12_M_constructIPcEEvT_S7_
FN:267,_ZNSt7__cxx1112basic_stringIcSt11char_traitsIcESaIcEE12_M_constructIPKcEEvT_S8_
FNDA:0,_ZNSt7__cxx1112basic_stringIcSt11char_traitsIcESaIcEE12_M_constructIPKcEEvT_S8_
FN:6023,_ZStplIcSt11char_traitsIcESaIcEENSt7__cxx1112basic_stringIT_T0_T1_EERKS8_SA_
FNDA:0,_ZStplIcSt11char_traitsIcESaIcEENSt7__cxx1112basic_stringIT_T0_T1_EERKS8_SA_
FN:6076,_ZStplIcSt11char_traitsIcESaIcEENSt7__cxx1112basic_stringIT_T0_T1_EERKS8_S5_
FNDA:97,_ZStplIcSt11char_traitsIcESaIcEENSt7__cxx1112basic_stringIT_T0_T1_EERKS8_S5_
FN:6088,_ZStplIcSt11char_traitsIcESaIcEENSt7__cxx1112basic_stringIT_T0_T1_EEOS8_RKS8_
FNDA:0,_ZStplIcSt11char_traitsIcESaIcEENSt7__cxx1112basic_stringIT_T0_T1_EEOS8_RKS8_
DA:247,0
DA:251,0
DA:252,0
DA:247,0
DA:251,0
DA:252,0
DA:267,0
DA:270,0
DA:271,0
DA:267,0
DA:270,0
DA:271,0
DA:6023,0
DA:6026,0
DA:6027,0
DA:6028,0
DA:6076,97
DA:6080,97
DA:6081,97
DA:6082,97
DA:6088,0
DA:6090,0
end_of_record
SF:/usr/include/json/reader.h
end_of_record
SF:/usr/include/c++/9/bits/char_traits.h
FN:336,_ZNSt11char_traitsIcE6lengthEPKc
FNDA:0,_ZNSt11char_traitsIcE6lengthEPKc
FN:368,_ZNSt11char_traitsIcE4copyEPcPKcm
FNDA:0,_ZNSt11char_traitsIcE4copyEPcPKcm
DA:336,0
DA:342,0
DA:368,0
DA:370,0
DA:371,0
DA:372,0
end_of_record
SF:/usr/include/c++/9/ext/type_traits.h
FN:152,_ZN9__gnu_cxx17__is_null_pointerIcEEbPT_
FNDA:0,_ZN9__gnu_cxx17__is_null_pointerIcEEbPT_
FN:152,_ZN9__gnu_cxx17__is_null_pointerIKcEEbPT_
FNDA:0,_ZN9__gnu_cxx17__is_null_pointerIKcEEbPT_
DA:152,0
DA:153,0
DA:152,0
DA:153,0
end_of_record
SF:/mnt/c/users/elsar/dev/tiralabra/patternmatching/includes/trie.h
FN:24,_ZN8TrieNode6insertERPS_NSt7__cxx1112basic_stringIcSt11char_traitsIcESaIcEEE
FNDA:254,_ZN8TrieNode6insertERPS_NSt7__cxx1112basic_stringIcSt11char_traitsIcESaIcEEE
FN:40,_ZN8TrieNode6searchEPS_NSt7__cxx1112basic_stringIcSt11char_traitsIcESaIcEEE
FNDA:2,_ZN8TrieNode6searchEPS_NSt7__cxx1112basic_stringIcSt11char_traitsIcESaIcEEE
FN:54,_ZN8TrieNode3dfsEPS_RSt6vectorINSt7__cxx1112basic_stringIcSt11char_traitsIcESaIcEEESaIS7_EEiS7_
FNDA:0,_ZN8TrieNode3dfsEPS_RSt6vectorINSt7__cxx1112basic_stringIcSt11char_traitsIcESaIcEEESaIS7_EEiS7_
FN:90,_ZN8TrieNode8preorderEPS_NSt7__cxx1112basic_stringIcSt11char_traitsIcESaIcEEE
FNDA:0,_ZN8TrieNode8preorderEPS_NSt7__cxx1112basic_stringIcSt11char_traitsIcESaIcEEE
DA:24,254
DA:26,254
DA:28,14296
DA:30,14042
DA:31,14042
DA:33,13761
DA:35,14042
DA:37,254
DA:40,2
DA:42,2
DA:43,20
DA:45,19
DA:47,2
DA:49,18
DA:51,2
DA:54,0
DA:57,0
DA:59,0
DA:61,0
DA:63,0
DA:64,0
DA:65,0
DA:67,0
DA:68,0
DA:72,0
DA:73,0
DA:75,0
DA:76,0
DA:80,0
DA:84,0
DA:85,0
DA:88,0
DA:90,0
DA:92,0
DA:93,0
DA:94,0
DA:95,0
DA:96,0
DA:97,0
end_of_record
SF:/usr/include/gtest/internal/gtest-internal.h
FN:442,_ZN7testing8internal15TestFactoryBaseD0Ev
FNDA:0,_ZN7testing8internal15TestFactoryBaseD0Ev
FN:442,_ZN7testing8internal15TestFactoryBaseD2Ev
FNDA:3,_ZN7testing8internal15TestFactoryBaseD2Ev
FN:449,_ZN7testing8internal15TestFactoryBaseC2Ev
FNDA:3,_ZN7testing8internal15TestFactoryBaseC2Ev
FN:460,_ZN7testing8internal15TestFactoryImplI36InsertAndSearchTest_SuffixFound_TestE10CreateTestEv
FNDA:1,_ZN7testing8internal15TestFactoryImplI36InsertAndSearchTest_SuffixFound_TestE10CreateTestEv
FN:460,_ZN7testing8internal15TestFactoryImplI39InsertAndSearchTest_SuffixNotFound_TestE10CreateTestEv
FNDA:1,_ZN7testing8internal15TestFactoryImplI39InsertAndSearchTest_SuffixNotFound_TestE10CreateTestEv
FN:460,_ZN7testing8internal15TestFactoryImplI26InsertTest_WordInsert_TestE10CreateTestEv
FNDA:1,_ZN7testing8internal15TestFactoryImplI26InsertTest_WordInsert_TestE10CreateTestEv
FN:481,_ZN7testing8internal12CodeLocationC2ERKNSt7__cxx1112basic_stringIcSt11char_traitsIcESaIcEEEi
FNDA:3,_ZN7testing8internal12CodeLocationC2ERKNSt7__cxx1112basic_stringIcSt11char_traitsIcESaIcEEEi
FN:494,_ZN7testing8internal19GetNotDefaultOrNullEPFvvES2_
FNDA:12,_ZN7testing8internal19GetNotDefaultOrNullEPFvvES2_
FN:509,_ZN7testing8internal16SuiteApiResolverINS_4TestEE19GetSetUpCaseOrSuiteEPKci
FNDA:3,_ZN7testing8internal16SuiteApiResolverINS_4TestEE19GetSetUpCaseOrSuiteEPKci
FN:524,_ZN7testing8internal16SuiteApiResolverINS_4TestEE22GetTearDownCaseOrSuiteEPKci
FNDA:3,_ZN7testing8internal16SuiteApiResolverINS_4TestEE22GetTearDownCaseOrSuiteEPKci
DA:442,0
DA:442,3
DA:449,3
DA:460,1
DA:460,1
DA:460,1
DA:481,3
DA:482,3
DA:494,12
DA:496,12
DA:509,3
DA:512,3
DA:514,3
DA:516,3
DA:519,0
DA:521,3
DA:524,3
DA:527,3
DA:529,3
DA:531,3
DA:534,0
DA:536,3
end_of_record
SF:/usr/include/c++/9/bits/stl_iterator_base_types.h
FN:205,_ZSt19__iterator_categoryIPcENSt15iterator_traitsIT_E17iterator_categoryERKS2_
FNDA:0,_ZSt19__iterator_categoryIPcENSt15iterator_traitsIT_E17iterator_categoryERKS2_
FN:205,_ZSt19__iterator_categoryIPKcENSt15iterator_traitsIT_E17iterator_categoryERKS3_
FNDA:0,_ZSt19__iterator_categoryIPKcENSt15iterator_traitsIT_E17iterator_categoryERKS3_
FN:205,_ZSt19__iterator_categoryIPKNSt7__cxx1112basic_stringIcSt11char_traitsIcESaIcEEEENSt15iterator_traitsIT_E17iterator_categoryERKS9_
FNDA:0,_ZSt19__iterator_categoryIPKNSt7__cxx1112basic_stringIcSt11char_traitsIcESaIcEEEENSt15iterator_traitsIT_E17iterator_categoryERKS9_
DA:205,0
DA:206,0
DA:205,0
DA:206,0
DA:205,0
DA:206,0
end_of_record
